

HI-TECH Software PIC PRO Macro Assembler V9.83 build 10920 
                                                                                               Thu Mar 18 10:21:30 2021

HI-TECH Software Omniscient Code Generator (PRO mode) build 10920
     1                           	processor	16F1937
     2                           	opt	pw 120
     3                           	opt	pm
     4                           	psect	config,global,class=CONFIG,delta=2
     5                           	psect	idataBANK0,global,class=CODE,delta=2
     6                           	psect	idataCOMMON,global,class=CODE,delta=2
     7                           	psect	cinit,global,class=CODE,delta=2
     8                           	psect	bssCOMMON,global,class=COMMON,space=1,delta=1
     9                           	psect	dataCOMMON,global,class=COMMON,space=1,delta=1
    10                           	psect	bssBANK0,global,class=BANK0,space=1,delta=1
    11                           	psect	dataBANK0,global,class=BANK0,space=1,delta=1
    12                           	psect	clrtext,global,class=CODE,delta=2
    13                           	psect	cstackCOMMON,global,class=COMMON,space=1,delta=1
    14                           	psect	cstackBANK0,global,class=BANK0,space=1,delta=1
    15                           	psect	intentry,global,class=CODE,delta=2
    16                           	psect	text250,local,class=CODE,delta=2
    17                           	psect	text251,local,class=CODE,delta=2
    18                           	psect	pa_nodes,global,class=CODE,delta=2
    19                           	dabs	1,0x7E,2
    20  000A                     	;#
    21                           
    22                           	psect	config
    23  8007  F92C               	dw	63788	;#
    24  8008  DDFF               	dw	56831	;#
    25                           
    26                           	psect	idataBANK0
    27  0000                     __pidataBANK0:	
    28                           
    29                           	psect	idataCOMMON
    30  0000                     __pidataCOMMON:	
    31  005F                     _GIE	set	95
    32  0064                     _RA4	set	100
    33  0065                     _RA5	set	101
    34  0069                     _RB1	set	105
    35  006A                     _RB2	set	106
    36  006B                     _RB3	set	107
    37  006C                     _RB4	set	108
    38  008D                     _RCIF	set	141
    39  0079                     _RD1	set	121
    40  0080                     _RE0	set	128
    41  005D                     _TMR0IE	set	93
    42  005A                     _TMR0IF	set	90
    43  008C                     _TXIF	set	140
    44  0095                     _OPTION_REG	set	149
    45  0099                     _OSCCON	set	153
    46  0091                     _PIE1	set	145
    47  008C                     _TRISA	set	140
    48  008D                     _TRISB	set	141
    49  008E                     _TRISC	set	142
    50  008F                     _TRISD	set	143
    51  0090                     _TRISE	set	144
    52  0097                     _WDTCON	set	151
    53  04B8                     _SWDTEN	set	1208
    54  0476                     _TRISC6	set	1142
    55  0477                     _TRISC7	set	1143
    56  010C                     _LATA	set	268
    57  010D                     _LATB	set	269
    58  010E                     _LATC	set	270
    59  010F                     _LATD	set	271
    60  0110                     _LATE	set	272
    61  0863                     _LATA3	set	2147
    62  0878                     _LATD0	set	2168
    63  018C                     _ANSELA	set	396
    64  018D                     _ANSELB	set	397
    65  018F                     _ANSELD	set	399
    66  0190                     _ANSELE	set	400
    67  019F                     _BAUDCON	set	415
    68  0199                     _RCREG	set	409
    69  019D                     _RCSTA	set	413
    70  019B                     _SPBRG	set	411
    71  019C                     _SPBRGH	set	412
    72  019B                     _SPBRGL	set	411
    73  019A                     _TXREG	set	410
    74  019E                     _TXSTA	set	414
    75  0CEC                     _CREN	set	3308
    76  0CEA                     _FERR	set	3306
    77  0CE9                     _OERR	set	3305
    78  0CEF                     _SPEN	set	3311
    79  020D                     _WPUB	set	525
    80                           
    81                           	psect	cinit
    82  00A4                     start_initialization:	
    83  00A4  3020               	movlw	low __pbssBANK0
    84                           
    85                           ; Clear objects allocated to COMMON
    86  00A5  01FD               	clrf	__pbssCOMMON& (0+127)
    87                           
    88                           ; Clear objects allocated to BANK0
    89  00A6  0084               	movwf	4
    90  00A7  3000               	movlw	high __pbssBANK0
    91  00A8  0085               	movwf	5
    92  00A9  3029               	movlw	41
    93  00AA  3184  244E  3180   	fcall	clear_ram
    94                           
    95                           ;initializer for _z0_on
    96  00AD  3001               	movlw	1
    97  00AE  00FA               	movwf	__pdataCOMMON& (0+127)
    98                           
    99                           ;initializer for _z1_off
   100  00AF  00FB               	movwf	(__pdataCOMMON+1)& (0+127)
   101                           
   102                           ;initializer for _z1_on
   103  00B0  00FC               	movwf	(__pdataCOMMON+2)& (0+127)
   104                           
   105                           ;initializer for _mode_state
   106  00B1  00E7               	movwf	__pdataBANK0& (0+127)
   107  00B2  3000               	movlw	0
   108  00B3  00E8               	movwf	(__pdataBANK0+1)& (0+127)
   109                           
   110                           ;initializer for _time_out
   111  00B4  30C8               	movlw	200
   112  00B5  00E9               	movwf	(__pdataBANK0+2)& (0+127)
   113  00B6  3000               	movlw	0
   114  00B7  00EA               	movwf	(__pdataBANK0+3)& (0+127)
   115                           
   116                           ;initializer for _heat_on
   117  00B8  3001               	movlw	1
   118  00B9  00EB               	movwf	(__pdataBANK0+4)& (0+127)
   119                           
   120                           ;initializer for _pwr_on
   121  00BA  00EC               	movwf	(__pdataBANK0+5)& (0+127)
   122                           
   123                           ;initializer for _z3_on
   124  00BB  00ED               	movwf	(__pdataBANK0+6)& (0+127)
   125  00BC                     end_of_initialization:	
   126                           ;End of C runtime variable initialization code
   127                           
   128  00BC  0020               	movlb	0
   129  00BD  28F7               	ljmp	_main	;jump to C main() function
   130  00BE                     __ptext243:	
   131 ;; =============== function _main ends ============
   132                           
   133                           
   134 ;; *************** function _connection_est *****************
   135 ;; Defined at:
   136 ;;		line 1141 in file "L210004 HC.c"
   137 ;; Parameters:    Size  Location     Type
   138 ;;		None
   139 ;; Auto vars:     Size  Location     Type
   140 ;;  i               2    2[COMMON] int 
   141 ;; Return value:  Size  Location     Type
   142 ;;		None               void
   143 ;; Registers used:
   144 ;;		wreg, status,2, status,0, btemp+1, pclath, cstack
   145 ;; Tracked objects:
   146 ;;		On entry : 1F/0
   147 ;;		On exit  : 0/0
   148 ;;		Unchanged: 0/0
   149 ;; Data sizes:     COMMON   BANK0   BANK1   BANK2   BANK3   BANK4   BANK5   BANK6
   150 ;;      Params:         0       0       0       0       0       0       0       0
   151 ;;      Locals:         2       0       0       0       0       0       0       0
   152 ;;      Temps:          2       0       0       0       0       0       0       0
   153 ;;      Totals:         4       0       0       0       0       0       0       0
   154 ;;Total ram usage:        4 bytes
   155 ;; Hardware stack levels used:    1
   156 ;; Hardware stack levels required when called:    3
   157 ;; This function calls:
   158 ;;		_hc_led_on
   159 ;;		_hc_led_off
   160 ;; This function is called by:
   161 ;;		_main
   162 ;; This function uses a non-reentrant model
   163 ;;
   164  00BE                     _connection_est:	
   165                           
   166                           ;L210004 HC.c: 1142: for(int i = 0; i < 3; ++i){
   167                           
   168                           ; Regs used in _connection_est: [wreg+status,2+status,0+btemp+1+pclath+cstack]
   169  00BE  01F2               	clrf	connection_est@i
   170  00BF  01F3               	clrf	connection_est@i+1
   171  00C0                     l5470:	
   172                           
   173                           ;L210004 HC.c: 1143: hc_led_on();
   174  00C0  2410  3180         	fcall	_hc_led_on
   175                           
   176                           ;L210004 HC.c: 1144: _delay((unsigned long)((150)*(4000000/4000.0)));
   177  00C2  30C3               	movlw	195
   178  00C3  00F1               	movwf	??_connection_est+1
   179  00C4  30CD               	movlw	205
   180  00C5  00F0               	movwf	??_connection_est
   181  00C6                     u2497:	
   182  00C6  0BF0               	decfsz	??_connection_est,f
   183  00C7  28C6               	goto	u2497
   184  00C8  0BF1               	decfsz	??_connection_est+1,f
   185  00C9  28C6               	goto	u2497
   186                           
   187                           ;L210004 HC.c: 1145: hc_led_off();
   188  00CA  2400  3180         	fcall	_hc_led_off
   189                           
   190                           ;L210004 HC.c: 1146: _delay((unsigned long)((150)*(4000000/4000.0)));
   191  00CC  30C3               	movlw	195
   192  00CD  00F1               	movwf	??_connection_est+1
   193  00CE  30CD               	movlw	205
   194  00CF  00F0               	movwf	??_connection_est
   195  00D0                     u2507:	
   196  00D0  0BF0               	decfsz	??_connection_est,f
   197  00D1  28D0               	goto	u2507
   198  00D2  0BF1               	decfsz	??_connection_est+1,f
   199  00D3  28D0               	goto	u2507
   200  00D4  0AF2               	incf	connection_est@i,f
   201  00D5  1903               	skipnz
   202  00D6  0AF3               	incf	connection_est@i+1,f
   203  00D7  0873               	movf	connection_est@i+1,w
   204  00D8  3A80               	xorlw	128
   205  00D9  00FF               	movwf	127
   206  00DA  3080               	movlw	128
   207  00DB  027F               	subwf	127,w
   208  00DC  1D03               	skipz
   209  00DD  28E0               	goto	u1845
   210  00DE  3003               	movlw	3
   211  00DF  0272               	subwf	connection_est@i,w
   212  00E0                     u1845:	
   213  00E0  1803               	btfsc	3,0
   214  00E1  0008               	return
   215  00E2  28C0               	goto	l5470
   216  00E3                     __end_of_connection_est:	
   217  00E3                     __ptext244:	
   218 ;; =============== function _connection_est ends ============
   219                           
   220                           
   221 ;; *************** function _syn_synack_ack *****************
   222 ;; Defined at:
   223 ;;		line 1124 in file "L210004 HC.c"
   224 ;; Parameters:    Size  Location     Type
   225 ;;		None
   226 ;; Auto vars:     Size  Location     Type
   227 ;;  c               1    5[COMMON] unsigned char 
   228 ;;  echo            1    6[COMMON] unsigned char 
   229 ;; Return value:  Size  Location     Type
   230 ;;                  1    wreg      unsigned char 
   231 ;; Registers used:
   232 ;;		wreg, status,2, status,0, btemp+1, pclath, cstack
   233 ;; Tracked objects:
   234 ;;		On entry : 1F/0
   235 ;;		On exit  : 0/0
   236 ;;		Unchanged: FFE00/0
   237 ;; Data sizes:     COMMON   BANK0   BANK1   BANK2   BANK3   BANK4   BANK5   BANK6
   238 ;;      Params:         0       0       0       0       0       0       0       0
   239 ;;      Locals:         2       0       0       0       0       0       0       0
   240 ;;      Temps:          0       0       0       0       0       0       0       0
   241 ;;      Totals:         2       0       0       0       0       0       0       0
   242 ;;Total ram usage:        2 bytes
   243 ;; Hardware stack levels used:    1
   244 ;; Hardware stack levels required when called:    3
   245 ;; This function calls:
   246 ;;		_putch
   247 ;;		_getch
   248 ;; This function is called by:
   249 ;;		_main
   250 ;; This function uses a non-reentrant model
   251 ;;
   252  00E3                     _syn_synack_ack:	
   253                           
   254                           ;L210004 HC.c: 1125: bool echo = 1;
   255                           
   256                           ; Regs used in _syn_synack_ack: [wreg+status,2+status,0+btemp+1+pclath+cstack]
   257  00E3  01F6               	clrf	syn_synack_ack@echo
   258  00E4  0AF6               	incf	syn_synack_ack@echo,f
   259  00E5                     l5448:	
   260                           
   261                           ;L210004 HC.c: 1127: putch('?');
   262  00E5  303F               	movlw	63
   263  00E6  23BA  3180         	fcall	_putch
   264                           
   265                           ;L210004 HC.c: 1128: char c = getch();
   266  00E8  23DE  3180         	fcall	_getch
   267  00EA  00F5               	movwf	syn_synack_ack@c
   268  00EB  0064               	clrwdt	;#
   269                           
   270                           ;L210004 HC.c: 1130: if(c == '!'){
   271  00EC  3A21               	xorlw	33
   272  00ED  1D03               	skipz
   273  00EE  28F3               	goto	l5458
   274                           
   275                           ;L210004 HC.c: 1131: putch('~');
   276  00EF  307E               	movlw	126
   277  00F0  23BA  3180         	fcall	_putch
   278                           
   279                           ;L210004 HC.c: 1132: echo = 0;
   280  00F2  01F6               	clrf	syn_synack_ack@echo
   281  00F3                     l5458:	
   282                           
   283                           ;L210004 HC.c: 1133: }
   284                           ;L210004 HC.c: 1134: }while(echo);
   285  00F3  08F6               	movf	syn_synack_ack@echo,f
   286  00F4  1903               	btfsc	3,2
   287                           
   288                           ;L210004 HC.c: 1136: return 1;
   289  00F5  3401               	retlw	1
   290  00F6  28E5               	goto	l5448
   291  00F7                     __end_of_syn_synack_ack:	
   292  00F7                     __pmaintext:	
   293 ;;Data sizes: Strings 0, constant 0, data 10, bss 42, persistent 0 stack 0
   294 ;;Auto spaces:   Size  Autos    Used
   295 ;; COMMON          14     10      14
   296 ;; BANK0           80     30      78
   297 ;; BANK1           80      0       0
   298 ;; BANK2           80      0       0
   299 ;; BANK3           80      0       0
   300 ;; BANK4           80      0       0
   301 ;; BANK5           80      0       0
   302 ;; BANK6           16      0       0
   303 ;;
   304 ;; Pointer list with targets:
   305 ;;
   306 ;; Critical Paths under _main in COMMON
   307 ;;
   308 ;;   _main->_syn_synack_ack
   309 ;;   _syn_synack_ack->_putch
   310 ;;
   311 ;; Critical Paths under _isr in COMMON
   312 ;;
   313 ;;   None.
   314 ;;
   315 ;; Critical Paths under _main in BANK0
   316 ;;
   317 ;;   None.
   318 ;;
   319 ;; Critical Paths under _isr in BANK0
   320 ;;
   321 ;;   None.
   322 ;;
   323 ;; Critical Paths under _main in BANK1
   324 ;;
   325 ;;   None.
   326 ;;
   327 ;; Critical Paths under _isr in BANK1
   328 ;;
   329 ;;   None.
   330 ;;
   331 ;; Critical Paths under _main in BANK2
   332 ;;
   333 ;;   None.
   334 ;;
   335 ;; Critical Paths under _isr in BANK2
   336 ;;
   337 ;;   None.
   338 ;;
   339 ;; Critical Paths under _main in BANK3
   340 ;;
   341 ;;   None.
   342 ;;
   343 ;; Critical Paths under _isr in BANK3
   344 ;;
   345 ;;   None.
   346 ;;
   347 ;; Critical Paths under _main in BANK4
   348 ;;
   349 ;;   None.
   350 ;;
   351 ;; Critical Paths under _isr in BANK4
   352 ;;
   353 ;;   None.
   354 ;;
   355 ;; Critical Paths under _main in BANK5
   356 ;;
   357 ;;   None.
   358 ;;
   359 ;; Critical Paths under _isr in BANK5
   360 ;;
   361 ;;   None.
   362 ;;
   363 ;; Critical Paths under _main in BANK6
   364 ;;
   365 ;;   None.
   366 ;;
   367 ;; Critical Paths under _isr in BANK6
   368 ;;
   369 ;;   None.
   370 ;;
   371 ;;Main: autosize = 0, tempsize = 3, incstack = 0, save=0
   372 ;;
   373 ;;
   374 ;;Call Graph Tables:
   375 ;;
   376 ;; ---------------------------------------------------------------------------------
   377 ;; (Depth) Function   	        Calls       Base Space   Used Autos Params    Refs
   378 ;; ---------------------------------------------------------------------------------
   379 ;; (0) _main                                                43    43      0    1105
   380 ;;                                              7 COMMON     3     3      0
   381 ;;                                              0 BANK0     30    30      0
   382 ;;                     _syn_synack_ack
   383 ;;                     _connection_est
   384 ;;                              _putch
   385 ;;                              _getch
   386 ;;                          _hc_led_on
   387 ;;                         _hc_led_off
   388 ;; ---------------------------------------------------------------------------------
   389 ;; (1) _connection_est                                       4     4      0      46
   390 ;;                                              0 COMMON     4     4      0
   391 ;;                          _hc_led_on
   392 ;;                         _hc_led_off
   393 ;; ---------------------------------------------------------------------------------
   394 ;; (1) _syn_synack_ack                                       2     2      0     117
   395 ;;                                              5 COMMON     2     2      0
   396 ;;                              _putch
   397 ;;                              _getch
   398 ;; ---------------------------------------------------------------------------------
   399 ;; (1) _hc_led_off                                           0     0      0       0
   400 ;; ---------------------------------------------------------------------------------
   401 ;; (1) _hc_led_on                                            0     0      0       0
   402 ;; ---------------------------------------------------------------------------------
   403 ;; (1) _getch                                                4     4      0      24
   404 ;;                                              0 COMMON     4     4      0
   405 ;; ---------------------------------------------------------------------------------
   406 ;; (1) _putch                                                5     5      0      46
   407 ;;                                              0 COMMON     5     5      0
   408 ;; ---------------------------------------------------------------------------------
   409 ;; Estimated maximum stack depth 1
   410 ;; ---------------------------------------------------------------------------------
   411 ;; (Depth) Function   	        Calls       Base Space   Used Autos Params    Refs
   412 ;; ---------------------------------------------------------------------------------
   413 ;; (3) _isr                                                  0     0      0       0
   414 ;;                       i1_hc_led_off
   415 ;; ---------------------------------------------------------------------------------
   416 ;; (4) i1_hc_led_off                                         0     0      0       0
   417 ;; ---------------------------------------------------------------------------------
   418 ;; Estimated maximum stack depth 4
   419 ;; ---------------------------------------------------------------------------------
   420 ;; Call Graph Graphs:
   421 ;; _main (ROOT)
   422 ;;   _syn_synack_ack
   423 ;;     _putch
   424 ;;     _getch
   425 ;;   _connection_est
   426 ;;     _hc_led_on
   427 ;;     _hc_led_off
   428 ;;   _putch
   429 ;;   _getch
   430 ;;   _hc_led_on
   431 ;;   _hc_led_off
   432 ;;
   433 ;; _isr (ROOT)
   434 ;;   i1_hc_led_off
   435 ;;
   436 ;; Address spaces:
   437 ;;Name               Size   Autos  Total    Cost      Usage
   438 ;;BIGRAM             1F0      0       0       0        0.0%
   439 ;;EEDATA             100      0       0       0        0.0%
   440 ;;NULL                 0      0       0       0        0.0%
   441 ;;CODE                 0      0       0       0        0.0%
   442 ;;BITCOMMON            E      0       0       1        0.0%
   443 ;;BITSFR0              0      0       0       1        0.0%
   444 ;;SFR0                 0      0       0       1        0.0%
   445 ;;COMMON               E      A       E       2      100.0%
   446 ;;BITSFR1              0      0       0       2        0.0%
   447 ;;SFR1                 0      0       0       2        0.0%
   448 ;;BITSFR2              0      0       0       3        0.0%
   449 ;;SFR2                 0      0       0       3        0.0%
   450 ;;STACK                0      0       6       3        0.0%
   451 ;;BITSFR3              0      0       0       4        0.0%
   452 ;;SFR3                 0      0       0       4        0.0%
   453 ;;ABS                  0      0      5C       4        0.0%
   454 ;;BITBANK0            50      0       0       5        0.0%
   455 ;;BITSFR4              0      0       0       5        0.0%
   456 ;;SFR4                 0      0       0       5        0.0%
   457 ;;BANK0               50     1E      4E       6       97.5%
   458 ;;BITSFR5              0      0       0       6        0.0%
   459 ;;SFR5                 0      0       0       6        0.0%
   460 ;;BITBANK1            50      0       0       7        0.0%
   461 ;;BITSFR6              0      0       0       7        0.0%
   462 ;;SFR6                 0      0       0       7        0.0%
   463 ;;BANK1               50      0       0       8        0.0%
   464 ;;BITSFR7              0      0       0       8        0.0%
   465 ;;SFR7                 0      0       0       8        0.0%
   466 ;;BITBANK2            50      0       0       9        0.0%
   467 ;;BITSFR8              0      0       0       9        0.0%
   468 ;;SFR8                 0      0       0       9        0.0%
   469 ;;BANK2               50      0       0      10        0.0%
   470 ;;BITSFR9              0      0       0      10        0.0%
   471 ;;SFR9                 0      0       0      10        0.0%
   472 ;;BITBANK3            50      0       0      11        0.0%
   473 ;;BITSFR10             0      0       0      11        0.0%
   474 ;;SFR10                0      0       0      11        0.0%
   475 ;;BANK3               50      0       0      12        0.0%
   476 ;;BITSFR11             0      0       0      12        0.0%
   477 ;;SFR11                0      0       0      12        0.0%
   478 ;;BITBANK4            50      0       0      13        0.0%
   479 ;;BITSFR12             0      0       0      13        0.0%
   480 ;;SFR12                0      0       0      13        0.0%
   481 ;;BANK4               50      0       0      14        0.0%
   482 ;;BITSFR13             0      0       0      14        0.0%
   483 ;;SFR13                0      0       0      14        0.0%
   484 ;;BITBANK5            50      0       0      15        0.0%
   485 ;;BITSFR14             0      0       0      15        0.0%
   486 ;;SFR14                0      0       0      15        0.0%
   487 ;;BANK5               50      0       0      16        0.0%
   488 ;;BITSFR15             0      0       0      16        0.0%
   489 ;;SFR15                0      0       0      16        0.0%
   490 ;;BITBANK6            10      0       0      17        0.0%
   491 ;;BITSFR16             0      0       0      17        0.0%
   492 ;;SFR16                0      0       0      17        0.0%
   493 ;;BANK6               10      0       0      18        0.0%
   494 ;;BITSFR17             0      0       0      18        0.0%
   495 ;;SFR17                0      0       0      18        0.0%
   496 ;;BITSFR18             0      0       0      19        0.0%
   497 ;;SFR18                0      0       0      19        0.0%
   498 ;;DATA                 0      0      62      19        0.0%
   499 ;;BITSFR19             0      0       0      20        0.0%
   500 ;;SFR19                0      0       0      20        0.0%
   501 ;;BITSFR20             0      0       0      21        0.0%
   502 ;;SFR20                0      0       0      21        0.0%
   503 ;;BITSFR21             0      0       0      22        0.0%
   504 ;;SFR21                0      0       0      22        0.0%
   505 ;;BITSFR22             0      0       0      23        0.0%
   506 ;;SFR22                0      0       0      23        0.0%
   507 ;;BITSFR23             0      0       0      24        0.0%
   508 ;;SFR23                0      0       0      24        0.0%
   509 ;;BITSFR24             0      0       0      25        0.0%
   510 ;;SFR24                0      0       0      25        0.0%
   511 ;;BITSFR25             0      0       0      26        0.0%
   512 ;;SFR25                0      0       0      26        0.0%
   513 ;;BITSFR26             0      0       0      27        0.0%
   514 ;;SFR26                0      0       0      27        0.0%
   515 ;;BITSFR27             0      0       0      28        0.0%
   516 ;;SFR27                0      0       0      28        0.0%
   517 ;;BITSFR28             0      0       0      29        0.0%
   518 ;;SFR28                0      0       0      29        0.0%
   519 ;;BITSFR29             0      0       0      30        0.0%
   520 ;;SFR29                0      0       0      30        0.0%
   521 ;;BITSFR30             0      0       0      31        0.0%
   522 ;;SFR30                0      0       0      31        0.0%
   523 ;;BITSFR31             0      0       0      32        0.0%
   524 ;;SFR31                0      0       0      32        0.0%
   525                           
   526                           
   527 ;; *************** function _main *****************
   528 ;; Defined at:
   529 ;;		line 258 in file "L210004 HC.c"
   530 ;; Parameters:    Size  Location     Type
   531 ;;		None
   532 ;; Auto vars:     Size  Location     Type
   533 ;;  i               2   28[BANK0 ] unsigned int 
   534 ;;  i               2   22[BANK0 ] unsigned int 
   535 ;;  i               2   20[BANK0 ] unsigned int 
   536 ;;  c               2    4[BANK0 ] int 
   537 ;;  echo            1    9[BANK0 ] unsigned char 
   538 ;;  i               2   26[BANK0 ] unsigned int 
   539 ;;  i               2   18[BANK0 ] unsigned int 
   540 ;;  i               2   16[BANK0 ] unsigned int 
   541 ;;  i               2   24[BANK0 ] unsigned int 
   542 ;;  i               2   14[BANK0 ] unsigned int 
   543 ;;  i               2   12[BANK0 ] unsigned int 
   544 ;;  x               2   10[BANK0 ] int 
   545 ;;  safety          2    6[BANK0 ] int 
   546 ;;  power_de        2    2[BANK0 ] int 
   547 ;;  heat_de         2    0[BANK0 ] int 
   548 ;;  mode_de         2    0        int 
   549 ;;  z3_de           2    0        int 
   550 ;;  z2_de           2    0        int 
   551 ;;  z1_de           2    0        int 
   552 ;;  z0_de           2    0        int 
   553 ;;  connect_ack     1    8[BANK0 ] unsigned char 
   554 ;; Return value:  Size  Location     Type
   555 ;;		None               void
   556 ;; Registers used:
   557 ;;		wreg, fsr0l, fsr0h, fsr1l, fsr1h, status,2, status,0, btemp+1, pclath, cstack
   558 ;; Tracked objects:
   559 ;;		On entry : 17F/0
   560 ;;		On exit  : 1F/0
   561 ;;		Unchanged: 0/0
   562 ;; Data sizes:     COMMON   BANK0   BANK1   BANK2   BANK3   BANK4   BANK5   BANK6
   563 ;;      Params:         0       0       0       0       0       0       0       0
   564 ;;      Locals:         0      30       0       0       0       0       0       0
   565 ;;      Temps:          3       0       0       0       0       0       0       0
   566 ;;      Totals:         3      30       0       0       0       0       0       0
   567 ;;Total ram usage:       33 bytes
   568 ;; Hardware stack levels required when called:    4
   569 ;; This function calls:
   570 ;;		_syn_synack_ack
   571 ;;		_connection_est
   572 ;;		_putch
   573 ;;		_getch
   574 ;;		_hc_led_on
   575 ;;		_hc_led_off
   576 ;; This function is called by:
   577 ;;		Startup code after reset
   578 ;; This function uses a non-reentrant model
   579 ;;
   580  00F7                     _main:	
   581                           
   582                           ;L210004 HC.c: 262: OSCCON = 0b01101000;
   583                           
   584                           ; Regs used in _main: [allreg]
   585  00F7  3068               	movlw	104
   586  00F8  0021               	movlb	1	; select bank1
   587  00F9  0099               	movwf	25	;volatile
   588                           
   589                           ;L210004 HC.c: 265: WDTCON = 0b00011001;
   590  00FA  3019               	movlw	25
   591  00FB  0097               	movwf	23	;volatile
   592                           
   593                           ;L210004 HC.c: 266: _delay((unsigned long)((3000)*(4000000/4000.0)));
   594  00FC  3010               	movlw	16
   595  00FD  00F9               	movwf	??_main+2
   596  00FE  3039               	movlw	57
   597  00FF  00F8               	movwf	??_main+1
   598  0100  301B               	movlw	27
   599  0101  00F7               	movwf	??_main
   600  0102                     u2477:	
   601  0102  0BF7               	decfsz	??_main,f
   602  0103  2902               	goto	u2477
   603  0104  0BF8               	decfsz	??_main+1,f
   604  0105  2902               	goto	u2477
   605  0106  0BF9               	decfsz	??_main+2,f
   606  0107  2902               	goto	u2477
   607  0108  2909               	nop2
   608                           
   609                           ;L210004 HC.c: 271: TRISA = 0b01110111;
   610  0109  3077               	movlw	119
   611  010A  0021               	movlb	1	; select bank1
   612  010B  008C               	movwf	12	;volatile
   613                           
   614                           ;L210004 HC.c: 280: ANSELA = 0b00000000;
   615  010C  0023               	movlb	3	; select bank3
   616  010D  018C               	clrf	12	;volatile
   617                           
   618                           ;L210004 HC.c: 282: TRISB = 0b11111111;
   619  010E  30FF               	movlw	255
   620  010F  0021               	movlb	1	; select bank1
   621  0110  008D               	movwf	13	;volatile
   622                           
   623                           ;L210004 HC.c: 291: ANSELB = 0b00000000;
   624  0111  0023               	movlb	3	; select bank3
   625  0112  018D               	clrf	13	;volatile
   626                           
   627                           ;L210004 HC.c: 293: TRISC = 0b10101000;
   628  0113  30A8               	movlw	168
   629  0114  0021               	movlb	1	; select bank1
   630  0115  008E               	movwf	14	;volatile
   631                           
   632                           ;L210004 HC.c: 304: TRISD = 0b11101010;
   633  0116  30EA               	movlw	234
   634  0117  008F               	movwf	15	;volatile
   635                           
   636                           ;L210004 HC.c: 313: ANSELD = 0b0000000;
   637  0118  0023               	movlb	3	; select bank3
   638  0119  018F               	clrf	15	;volatile
   639                           
   640                           ;L210004 HC.c: 315: TRISE = 0b0001;
   641  011A  3001               	movlw	1
   642  011B  0021               	movlb	1	; select bank1
   643  011C  0090               	movwf	16	;volatile
   644                           
   645                           ;L210004 HC.c: 318: ANSELE = 0b0000;
   646  011D  0023               	movlb	3	; select bank3
   647  011E  0190               	clrf	16	;volatile
   648                           
   649                           ;L210004 HC.c: 321: OSCCON = 0b01101000;
   650  011F  3068               	movlw	104
   651  0120  0021               	movlb	1	; select bank1
   652  0121  0099               	movwf	25	;volatile
   653  0122  3019               	movlw	25
   654                           
   655                           ;L210004 HC.c: 323: TRISC7 = 1; TRISC6 = 1; SPBRG = ((int)(4000000L/(16UL * 9600) -1)); 
      +                          RCSTA = (0|0x90); TXSTA = (0x4|0|0x20);
   656  0123  178E               	bsf	14,7
   657  0124  170E               	bsf	14,6
   658  0125  0023               	movlb	3	; select bank3
   659  0126  009B               	movwf	27	;volatile
   660  0127  3090               	movlw	144
   661  0128  009D               	movwf	29	;volatile
   662  0129  3024               	movlw	36
   663  012A  009E               	movwf	30	;volatile
   664                           
   665                           ;L210004 HC.c: 336: PIE1 = 0b00000000;
   666  012B  0021               	movlb	1	; select bank1
   667  012C  0191               	clrf	17	;volatile
   668                           
   669                           ;L210004 HC.c: 348: OPTION_REG = 0b00001000;
   670  012D  3008               	movlw	8
   671  012E  0095               	movwf	21	;volatile
   672                           
   673                           ;L210004 HC.c: 357: WPUB = 0b00000000;
   674  012F  0024               	movlb	4	; select bank4
   675  0130  018D               	clrf	13	;volatile
   676                           
   677                           ;L210004 HC.c: 380: BAUDCON = 0b00000000;
   678  0131  0023               	movlb	3	; select bank3
   679  0132  019F               	clrf	31	;volatile
   680                           
   681                           ;L210004 HC.c: 381: SPBRGL = 0x0C;
   682  0133  300C               	movlw	12
   683  0134  009B               	movwf	27	;volatile
   684                           
   685                           ;L210004 HC.c: 382: SPBRGH = 0b00000000;
   686  0135  019C               	clrf	28	;volatile
   687                           
   688                           ;L210004 HC.c: 383: OPTION_REG = 0b00001110;
   689  0136  300E               	movlw	14
   690  0137  0021               	movlb	1	; select bank1
   691  0138  0095               	movwf	21	;volatile
   692  0139  30C8               	movlw	200
   693                           
   694                           ;L210004 HC.c: 385: TMR0IE = 1;
   695  013A  168B               	bsf	11,5
   696  013B  178B               	bsf	11,7
   697                           
   698                           ;L210004 HC.c: 394: int mode_de = 200;
   699  013C  0020               	movlb	0	; select bank0
   700  013D  00C9               	movwf	main@heat_de
   701  013E  01CA               	clrf	main@heat_de+1
   702                           
   703                           ;L210004 HC.c: 395: int power_de = 200;
   704  013F  00CB               	movwf	main@power_de
   705  0140  30FF               	movlw	255
   706  0141  01CC               	clrf	main@power_de+1
   707                           
   708                           ;L210004 HC.c: 397: int safety = 0;
   709  0142  01CF               	clrf	main@safety
   710  0143  01D0               	clrf	main@safety+1
   711                           
   712                           ;L210004 HC.c: 399: LATA = 0xFF;
   713  0144  0022               	movlb	2	; select bank2
   714  0145  008C               	movwf	12	;volatile
   715                           
   716                           ;L210004 HC.c: 400: LATB = 0xFF;
   717  0146  008D               	movwf	13	;volatile
   718                           
   719                           ;L210004 HC.c: 401: LATC = 0xFF;
   720  0147  008E               	movwf	14	;volatile
   721                           
   722                           ;L210004 HC.c: 402: LATD = 0xFF;
   723  0148  008F               	movwf	15	;volatile
   724                           
   725                           ;L210004 HC.c: 403: LATE = 0xFF;
   726  0149  0090               	movwf	16	;volatile
   727                           
   728                           ;L210004 HC.c: 404: tx_buffer = 'a';
   729  014A  3061               	movlw	97
   730  014B  0020               	movlb	0	; select bank0
   731  014C  00C0               	movwf	_tx_buffer	;volatile
   732                           
   733                           ;L210004 HC.c: 411: _delay((unsigned long)((250)*(4000000/4000.0)));
   734  014D  3002               	movlw	2
   735  014E  00F9               	movwf	??_main+2
   736  014F  3045               	movlw	69
   737  0150  00F8               	movwf	??_main+1
   738  0151  30A9               	movlw	169
   739  0152  00F7               	movwf	??_main
   740  0153                     u2487:	
   741  0153  0BF7               	decfsz	??_main,f
   742  0154  2953               	goto	u2487
   743  0155  0BF8               	decfsz	??_main+1,f
   744  0156  2953               	goto	u2487
   745  0157  0BF9               	decfsz	??_main+2,f
   746  0158  2953               	goto	u2487
   747  0159  295A               	nop2
   748                           
   749                           ;L210004 HC.c: 413: bool connect_ack = 1;
   750  015A  0020               	movlb	0	; select bank0
   751  015B  01D1               	clrf	main@connect_ack
   752  015C  0AD1               	incf	main@connect_ack,f
   753  015D                     l5530:	
   754                           ;L210004 HC.c: 414: while(connect_ack){
   755                           
   756  015D  08D1               	movf	main@connect_ack,f
   757  015E  1903               	btfsc	3,2
   758  015F  2969               	goto	l5532
   759                           
   760                           ;L210004 HC.c: 415: connect_ack = !syn_synack_ack();
   761  0160  20E3  3180         	fcall	_syn_synack_ack
   762  0162  3A00               	xorlw	0
   763  0163  3000               	movlw	0
   764  0164  1903               	skipnz
   765  0165  3001               	movlw	1
   766  0166  0020               	movlb	0	; select bank0
   767  0167  00D1               	movwf	main@connect_ack
   768  0168  295D               	goto	l5530
   769  0169                     l5532:	
   770                           
   771                           ;L210004 HC.c: 416: }
   772                           ;L210004 HC.c: 418: connection_est();
   773  0169  20BE  3180         	fcall	_connection_est
   774                           
   775                           ;L210004 HC.c: 420: int x = 0;
   776  016B  0020               	movlb	0	; select bank0
   777  016C  01D3               	clrf	main@x
   778  016D  01D4               	clrf	main@x+1
   779                           
   780                           ;L210004 HC.c: 421: for(unsigned int i = 0; i < (sizeof(last_tx)/sizeof((last_tx)[0])); 
      +                          ++i){
   781  016E  01D5               	clrf	main@i
   782  016F  01D6               	clrf	main@i+1
   783  0170                     l5542:	
   784                           
   785                           ;L210004 HC.c: 422: putch('B');
   786  0170  3042               	movlw	66
   787  0171  23BA  3180         	fcall	_putch
   788                           
   789                           ;L210004 HC.c: 423: last_tx[i] = 'B';
   790  0173  0020               	movlb	0	; select bank0
   791  0174  0855               	movf	main@i,w
   792  0175  3E20               	addlw	_last_tx& (0+255)
   793  0176  0086               	movwf	6
   794  0177  3042               	movlw	66
   795  0178  0187               	clrf	7
   796  0179  0081               	movwf	1
   797                           
   798                           ;L210004 HC.c: 424: _delay((unsigned long)((5)*(4000000/4000000.0)));
   799  017A  297B               	nop2	;2 cycle nop
   800  017B  297C               	nop2	;2 cycle nop
   801  017C  0064               	clrwdt
   802  017D  0064               	clrwdt	;#
   803  017E  0020               	movlb	0	; select bank0
   804  017F  0AD5               	incf	main@i,f
   805  0180  1903               	skipnz
   806  0181  0AD6               	incf	main@i+1,f
   807  0182  3000               	movlw	0
   808  0183  0256               	subwf	main@i+1,w
   809  0184  3005               	movlw	5
   810  0185  1903               	skipnz
   811  0186  0255               	subwf	main@i,w
   812  0187  1C03               	skipc
   813  0188  2970               	goto	l5542
   814                           
   815                           ;L210004 HC.c: 426: }
   816                           ;L210004 HC.c: 427: for(unsigned int i = 0; i < (sizeof(rx_char)/sizeof((rx_char)[0])); 
      +                          ++i){
   817  0189  01D7               	clrf	main@i_3349
   818  018A  01D8               	clrf	main@i_3349+1
   819  018B                     l5560:	
   820                           
   821                           ;L210004 HC.c: 428: rx_char[i] = getch();
   822  018B  0857               	movf	main@i_3349,w
   823  018C  3E25               	addlw	_rx_char& (0+255)
   824  018D  0086               	movwf	6
   825  018E  0187               	clrf	7
   826  018F  23DE  3180         	fcall	_getch
   827  0191  0081               	movwf	1
   828  0192  0064               	clrwdt	;#
   829  0193  0020               	movlb	0	; select bank0
   830  0194  0AD7               	incf	main@i_3349,f
   831  0195  1903               	skipnz
   832  0196  0AD8               	incf	main@i_3349+1,f
   833  0197  3000               	movlw	0
   834  0198  0258               	subwf	main@i_3349+1,w
   835  0199  3005               	movlw	5
   836  019A  1903               	skipnz
   837  019B  0257               	subwf	main@i_3349,w
   838  019C  1C03               	skipc
   839  019D  298B               	goto	l5560
   840                           
   841                           ;L210004 HC.c: 430: }
   842                           ;L210004 HC.c: 431: for(unsigned int i = 0; i < (sizeof(last_tx)/sizeof((last_tx)[0])); 
      +                          ++i){
   843  019E  01E1               	clrf	main@i_3350
   844  019F  01E2               	clrf	main@i_3350+1
   845  01A0                     l5574:	
   846                           
   847                           ;L210004 HC.c: 432: if(last_tx[i] == rx_char[i]){
   848  01A0  0861               	movf	main@i_3350,w
   849  01A1  3E25               	addlw	_rx_char& (0+255)
   850  01A2  0086               	movwf	6
   851  01A3  0187               	clrf	7
   852  01A4  0861               	movf	main@i_3350,w
   853  01A5  242D  3180         	fcall	PL4	;call to abstracted procedure
   854  01A7  1903               	btfsc	3,2
   855                           
   856                           ;L210004 HC.c: 433: x++;
   857  01A8  0AD3               	incf	main@x,f
   858  01A9  1903               	skipnz
   859  01AA  0AD4               	incf	main@x+1,f
   860  01AB  0064               	clrwdt	;#
   861  01AC  0020               	movlb	0	; select bank0
   862  01AD  0AE1               	incf	main@i_3350,f
   863  01AE  1903               	skipnz
   864  01AF  0AE2               	incf	main@i_3350+1,f
   865  01B0  3000               	movlw	0
   866  01B1  0262               	subwf	main@i_3350+1,w
   867  01B2  3005               	movlw	5
   868  01B3  1903               	skipnz
   869  01B4  0261               	subwf	main@i_3350,w
   870  01B5  1C03               	skipc
   871  01B6  29A0               	goto	l5574
   872                           
   873                           ;L210004 HC.c: 436: }
   874                           ;L210004 HC.c: 437: if(x == 5){
   875  01B7  0853               	movf	main@x,w
   876  01B8  3A05               	xorlw	5
   877  01B9  0454               	iorwf	main@x+1,w
   878  01BA  1D03               	skipz
   879  01BB  29C2               	goto	l5588
   880                           
   881                           ;L210004 HC.c: 439: putch('+');
   882  01BC  302B               	movlw	43
   883  01BD  23BA  3180         	fcall	_putch
   884                           
   885                           ;L210004 HC.c: 440: x = 0;
   886  01BF  0020               	movlb	0	; select bank0
   887  01C0  01D3               	clrf	main@x
   888  01C1  01D4               	clrf	main@x+1
   889  01C2                     l5588:	
   890                           
   891                           ;L210004 HC.c: 441: }
   892                           ;L210004 HC.c: 443: for(unsigned int i = 0; i < (sizeof(last_tx)/sizeof((last_tx)[0])); 
      +                          ++i){
   893  01C2  01D9               	clrf	main@i_3351
   894  01C3  01DA               	clrf	main@i_3351+1
   895  01C4                     l5594:	
   896                           
   897                           ;L210004 HC.c: 444: putch('Y');
   898  01C4  3059               	movlw	89
   899  01C5  23BA  3180         	fcall	_putch
   900                           
   901                           ;L210004 HC.c: 445: last_tx[i] = 'Y';
   902  01C7  0020               	movlb	0	; select bank0
   903  01C8  0859               	movf	main@i_3351,w
   904  01C9  3E20               	addlw	_last_tx& (0+255)
   905  01CA  0086               	movwf	6
   906  01CB  3059               	movlw	89
   907  01CC  0187               	clrf	7
   908  01CD  0081               	movwf	1
   909                           
   910                           ;L210004 HC.c: 446: _delay((unsigned long)((5)*(4000000/4000000.0)));
   911  01CE  29CF               	nop2	;2 cycle nop
   912  01CF  29D0               	nop2	;2 cycle nop
   913  01D0  0064               	clrwdt
   914  01D1  0064               	clrwdt	;#
   915  01D2  0020               	movlb	0	; select bank0
   916  01D3  0AD9               	incf	main@i_3351,f
   917  01D4  1903               	skipnz
   918  01D5  0ADA               	incf	main@i_3351+1,f
   919  01D6  3000               	movlw	0
   920  01D7  025A               	subwf	main@i_3351+1,w
   921  01D8  3005               	movlw	5
   922  01D9  1903               	skipnz
   923  01DA  0259               	subwf	main@i_3351,w
   924  01DB  1C03               	skipc
   925  01DC  29C4               	goto	l5594
   926                           
   927                           ;L210004 HC.c: 448: }
   928                           ;L210004 HC.c: 449: for(unsigned int i = 0; i < (sizeof(rx_char)/sizeof((rx_char)[0])); 
      +                          ++i){
   929  01DD  01DB               	clrf	main@i_3352
   930  01DE  01DC               	clrf	main@i_3352+1
   931  01DF                     l5612:	
   932                           
   933                           ;L210004 HC.c: 450: rx_char[i] = getch();
   934  01DF  085B               	movf	main@i_3352,w
   935  01E0  3E25               	addlw	_rx_char& (0+255)
   936  01E1  0086               	movwf	6
   937  01E2  0187               	clrf	7
   938  01E3  23DE  3180         	fcall	_getch
   939  01E5  0081               	movwf	1
   940  01E6  0064               	clrwdt	;#
   941  01E7  0020               	movlb	0	; select bank0
   942  01E8  0ADB               	incf	main@i_3352,f
   943  01E9  1903               	skipnz
   944  01EA  0ADC               	incf	main@i_3352+1,f
   945  01EB  3000               	movlw	0
   946  01EC  025C               	subwf	main@i_3352+1,w
   947  01ED  3005               	movlw	5
   948  01EE  1903               	skipnz
   949  01EF  025B               	subwf	main@i_3352,w
   950  01F0  1C03               	skipc
   951  01F1  29DF               	goto	l5612
   952                           
   953                           ;L210004 HC.c: 452: }
   954                           ;L210004 HC.c: 453: for(unsigned int i = 0; i < (sizeof(last_tx)/sizeof((last_tx)[0])); 
      +                          ++i){
   955  01F2  01E3               	clrf	main@i_3353
   956  01F3  01E4               	clrf	main@i_3353+1
   957  01F4                     l5626:	
   958                           
   959                           ;L210004 HC.c: 454: if(last_tx[i] == rx_char[i]){
   960  01F4  0863               	movf	main@i_3353,w
   961  01F5  3E25               	addlw	_rx_char& (0+255)
   962  01F6  0086               	movwf	6
   963  01F7  0187               	clrf	7
   964  01F8  0863               	movf	main@i_3353,w
   965  01F9  242D  3180         	fcall	PL4	;call to abstracted procedure
   966  01FB  1903               	btfsc	3,2
   967                           
   968                           ;L210004 HC.c: 455: x++;
   969  01FC  0AD3               	incf	main@x,f
   970  01FD  1903               	skipnz
   971  01FE  0AD4               	incf	main@x+1,f
   972  01FF  0064               	clrwdt	;#
   973  0200  0020               	movlb	0	; select bank0
   974  0201  0AE3               	incf	main@i_3353,f
   975  0202  1903               	skipnz
   976  0203  0AE4               	incf	main@i_3353+1,f
   977  0204  3000               	movlw	0
   978  0205  0264               	subwf	main@i_3353+1,w
   979  0206  3005               	movlw	5
   980  0207  1903               	skipnz
   981  0208  0263               	subwf	main@i_3353,w
   982  0209  1C03               	skipc
   983  020A  29F4               	goto	l5626
   984                           
   985                           ;L210004 HC.c: 458: }
   986                           ;L210004 HC.c: 459: if(x == 5){
   987  020B  0853               	movf	main@x,w
   988  020C  3A05               	xorlw	5
   989  020D  0454               	iorwf	main@x+1,w
   990  020E  1D03               	skipz
   991  020F  2A14               	goto	l5642
   992                           
   993                           ;L210004 HC.c: 461: putch('+');
   994  0210  302B               	movlw	43
   995  0211  23BA  3180         	fcall	_putch
   996  0213  0064               	clrwdt	;#
   997  0214                     l5642:	
   998                           
   999                           ;L210004 HC.c: 467: if(OERR || FERR){
  1000  0214  0023               	movlb	3	; select bank3
  1001  0215  189D               	btfsc	29,1
  1002  0216  2A19               	goto	l2150
  1003  0217  1D1D               	btfss	29,2
  1004  0218  2A1E               	goto	l5648
  1005  0219                     l2150:	
  1006                           
  1007                           ;L210004 HC.c: 468: CREN = 0;
  1008  0219  121D               	bcf	29,4
  1009                           
  1010                           ;L210004 HC.c: 469: SPEN = 0;
  1011  021A  139D               	bcf	29,7
  1012                           
  1013                           ;L210004 HC.c: 470: CREN = 1;
  1014  021B  161D               	bsf	29,4
  1015                           
  1016                           ;L210004 HC.c: 471: SPEN = 1;
  1017  021C  179D               	bsf	29,7
  1018                           
  1019                           ;L210004 HC.c: 472: tx_ferr = RCSTA;
  1020  021D  081D               	movf	29,w	;volatile
  1021  021E                     l5648:	
  1022                           
  1023                           ;L210004 HC.c: 473: }
  1024                           ;L210004 HC.c: 684: if(RB4){
  1025  021E  0020               	movlb	0	; select bank0
  1026  021F  1E0D               	btfss	13,4
  1027  0220  2A50               	goto	l5694
  1028                           
  1029                           ;L210004 HC.c: 685: if(RD1){
  1030  0221  188F               	btfsc	15,1
  1031  0222  2A54               	goto	l2160
  1032                           
  1033                           ;L210004 HC.c: 687: else{
  1034                           ;L210004 HC.c: 688: if(!(--heat_de)){
  1035  0223  30FF               	movlw	-1
  1036  0224  07C9               	addwf	main@heat_de,f
  1037  0225  1C03               	skipc
  1038  0226  03CA               	decf	main@heat_de+1,f
  1039  0227  084A               	movf	main@heat_de+1,w
  1040  0228  0449               	iorwf	main@heat_de,w
  1041  0229  1D03               	skipz
  1042  022A  2A54               	goto	l2160
  1043                           
  1044                           ;L210004 HC.c: 689: if(heat_on && !heat_sent){
  1045  022B  086B               	movf	_heat_on,w	;volatile
  1046  022C  1903               	btfsc	3,2
  1047  022D  2A40               	goto	l5672
  1048  022E  08AF               	movf	_heat_sent,f
  1049  022F  1D03               	skipz
  1050  0230  2A40               	goto	l5672
  1051                           
  1052                           ;L210004 HC.c: 690: tx_buffer = 'W';
  1053  0231  3057               	movlw	87
  1054  0232  00C0               	movwf	_tx_buffer	;volatile
  1055                           
  1056                           ;L210004 HC.c: 691: tx_flag = 1;
  1057  0233  01C1               	clrf	_tx_flag	;volatile
  1058  0234  0AC1               	incf	_tx_flag,f	;volatile
  1059                           
  1060                           ;L210004 HC.c: 692: LATA3 = 0;
  1061  0235  0022               	movlb	2	; select bank2
  1062  0236  118C               	bcf	12,3
  1063                           
  1064                           ;L210004 HC.c: 693: heat_on = 0;
  1065  0237  0020               	movlb	0	; select bank0
  1066  0238  01EB               	clrf	_heat_on	;volatile
  1067                           
  1068                           ;L210004 HC.c: 694: heat_off = 1;
  1069  0239  01AE               	clrf	_heat_off	;volatile
  1070  023A  0AAE               	incf	_heat_off,f	;volatile
  1071                           
  1072                           ;L210004 HC.c: 695: heat_timeout = 20*60*29.5;
  1073  023B  3048               	movlw	72
  1074  023C  00AA               	movwf	_heat_timeout	;volatile
  1075  023D  308A               	movlw	138
  1076  023E  00AB               	movwf	_heat_timeout+1	;volatile
  1077                           
  1078                           ;L210004 HC.c: 696: }
  1079  023F  2A54               	goto	l2160
  1080  0240                     l5672:	
  1081                           
  1082                           ;L210004 HC.c: 697: else if(heat_off){
  1083  0240  082E               	movf	_heat_off,w	;volatile
  1084  0241  1903               	btfsc	3,2
  1085  0242  2A54               	goto	l2160
  1086                           
  1087                           ;L210004 HC.c: 698: tx_buffer = 'X';
  1088  0243  3058               	movlw	88
  1089  0244  00C0               	movwf	_tx_buffer	;volatile
  1090                           
  1091                           ;L210004 HC.c: 699: tx_flag = 1;
  1092  0245  01C1               	clrf	_tx_flag	;volatile
  1093  0246  0AC1               	incf	_tx_flag,f	;volatile
  1094                           
  1095                           ;L210004 HC.c: 700: LATA3 = 1;
  1096  0247  0022               	movlb	2	; select bank2
  1097  0248  158C               	bsf	12,3
  1098                           
  1099                           ;L210004 HC.c: 701: heat_off = 0;
  1100  0249  0020               	movlb	0	; select bank0
  1101  024A  01AE               	clrf	_heat_off	;volatile
  1102                           
  1103                           ;L210004 HC.c: 702: heat_on = 1;
  1104  024B  01EB               	clrf	_heat_on	;volatile
  1105  024C  0AEB               	incf	_heat_on,f	;volatile
  1106                           
  1107                           ;L210004 HC.c: 703: heat_sent = 1;
  1108  024D  01AF               	clrf	_heat_sent	;volatile
  1109  024E  0AAF               	incf	_heat_sent,f	;volatile
  1110  024F  2A54               	goto	l2160
  1111  0250                     l5694:	
  1112                           
  1113                           ;L210004 HC.c: 714: else{
  1114                           ;L210004 HC.c: 715: heat_de = 200;
  1115  0250  30C8               	movlw	200
  1116  0251  00C9               	movwf	main@heat_de
  1117  0252  01CA               	clrf	main@heat_de+1
  1118                           
  1119                           ;L210004 HC.c: 716: heat_sent = 0;
  1120  0253  01AF               	clrf	_heat_sent	;volatile
  1121  0254                     l2160:	
  1122                           
  1123                           ;L210004 HC.c: 722: }
  1124                           ;L210004 HC.c: 723: }
  1125                           ;L210004 HC.c: 725: if(RD1){
  1126  0254  1C8F               	btfss	15,1
  1127  0255  2A8A               	goto	l5742
  1128                           
  1129                           ;L210004 HC.c: 726: if(!(--power_de)){
  1130  0256  30FF               	movlw	-1
  1131  0257  07CB               	addwf	main@power_de,f
  1132  0258  1C03               	skipc
  1133  0259  03CC               	decf	main@power_de+1,f
  1134  025A  084C               	movf	main@power_de+1,w
  1135  025B  044B               	iorwf	main@power_de,w
  1136  025C  1D03               	skipz
  1137  025D  2A8E               	goto	l5752
  1138                           
  1139                           ;L210004 HC.c: 727: if(pwr_on && !pwr_sent){
  1140  025E  086C               	movf	_pwr_on,w	;volatile
  1141  025F  1903               	btfsc	3,2
  1142  0260  2A72               	goto	l5720
  1143  0261  08BF               	movf	_pwr_sent,f
  1144  0262  1D03               	skipz
  1145  0263  2A72               	goto	l5720
  1146                           
  1147                           ;L210004 HC.c: 728: tx_buffer = 'A';
  1148  0264  3041               	movlw	65
  1149  0265  00C0               	movwf	_tx_buffer	;volatile
  1150                           
  1151                           ;L210004 HC.c: 729: tx_flag = 1;
  1152  0266  01C1               	clrf	_tx_flag	;volatile
  1153  0267  0AC1               	incf	_tx_flag,f	;volatile
  1154                           
  1155                           ;L210004 HC.c: 730: hc_led_on();
  1156  0268  2410  3180         	fcall	_hc_led_on
  1157                           
  1158                           ;L210004 HC.c: 731: pwr_on = 0;
  1159  026A  01EC               	clrf	_pwr_on	;volatile
  1160                           
  1161                           ;L210004 HC.c: 732: pwr_off = 1;
  1162  026B  01BE               	clrf	_pwr_off	;volatile
  1163  026C  0ABE               	incf	_pwr_off,f	;volatile
  1164                           
  1165                           ;L210004 HC.c: 733: massage_timeout = 20*60*29.5;
  1166  026D  3048               	movlw	72
  1167  026E  00AC               	movwf	_massage_timeout	;volatile
  1168  026F  308A               	movlw	138
  1169  0270  00AD               	movwf	_massage_timeout+1	;volatile
  1170                           
  1171                           ;L210004 HC.c: 749: }
  1172  0271  2A8E               	goto	l5752
  1173  0272                     l5720:	
  1174                           
  1175                           ;L210004 HC.c: 750: else if(pwr_off){
  1176  0272  083E               	movf	_pwr_off,w	;volatile
  1177  0273  1903               	btfsc	3,2
  1178  0274  2A8E               	goto	l5752
  1179                           
  1180                           ;L210004 HC.c: 751: tx_buffer = 'B';
  1181  0275  3042               	movlw	66
  1182  0276  00C0               	movwf	_tx_buffer	;volatile
  1183                           
  1184                           ;L210004 HC.c: 752: tx_flag = 1;
  1185  0277  01C1               	clrf	_tx_flag	;volatile
  1186  0278  0AC1               	incf	_tx_flag,f	;volatile
  1187                           
  1188                           ;L210004 HC.c: 753: hc_led_off();
  1189  0279  2400  3180         	fcall	_hc_led_off
  1190                           
  1191                           ;L210004 HC.c: 754: LATA3 = 1;
  1192  027B  0022               	movlb	2	; select bank2
  1193  027C  158C               	bsf	12,3
  1194                           
  1195                           ;L210004 HC.c: 755: heat_on = 1;
  1196  027D  0020               	movlb	0	; select bank0
  1197  027E  01EB               	clrf	_heat_on	;volatile
  1198  027F  0AEB               	incf	_heat_on,f	;volatile
  1199                           
  1200                           ;L210004 HC.c: 756: heat_off = 0;
  1201  0280  01AE               	clrf	_heat_off	;volatile
  1202                           
  1203                           ;L210004 HC.c: 757: pwr_off = 0;
  1204  0281  01BE               	clrf	_pwr_off	;volatile
  1205                           
  1206                           ;L210004 HC.c: 758: pwr_on = 1;
  1207  0282  01EC               	clrf	_pwr_on	;volatile
  1208  0283  0AEC               	incf	_pwr_on,f	;volatile
  1209                           
  1210                           ;L210004 HC.c: 759: pwr_sent = 1;
  1211  0284  01BF               	clrf	_pwr_sent	;volatile
  1212  0285  0ABF               	incf	_pwr_sent,f	;volatile
  1213                           
  1214                           ;L210004 HC.c: 760: mode_state = 1;
  1215  0286  3001               	movlw	1
  1216  0287  00E7               	movwf	_mode_state	;volatile
  1217  0288  01E8               	clrf	_mode_state+1	;volatile
  1218  0289  2A8E               	goto	l5752
  1219  028A                     l5742:	
  1220                           ;L210004 HC.c: 761: }
  1221                           ;L210004 HC.c: 762: }
  1222                           ;L210004 HC.c: 763: }
  1223                           
  1224                           
  1225                           ;L210004 HC.c: 764: else{
  1226                           ;L210004 HC.c: 765: power_de = 200;
  1227  028A  30C8               	movlw	200
  1228  028B  00CB               	movwf	main@power_de
  1229  028C  01CC               	clrf	main@power_de+1
  1230                           
  1231                           ;L210004 HC.c: 766: pwr_sent = 0;
  1232  028D  01BF               	clrf	_pwr_sent	;volatile
  1233  028E                     l5752:	
  1234                           
  1235                           ;L210004 HC.c: 772: }
  1236                           ;L210004 HC.c: 773: }
  1237                           ;L210004 HC.c: 790: if(lum_btn_op){
  1238  028E  0835               	movf	_lum_btn_op,w	;volatile
  1239  028F  1903               	btfsc	3,2
  1240  0290  2AA9               	goto	l5774
  1241                           
  1242                           ;L210004 HC.c: 791: if(last_tx[0] == 'I'){
  1243  0291  0820               	movf	_last_tx,w
  1244  0292  3A49               	xorlw	73
  1245  0293  1D03               	skipz
  1246  0294  2A98               	goto	l5758
  1247                           
  1248                           ;L210004 HC.c: 792: lum_op_sent = 1;
  1249  0295  01B7               	clrf	_lum_op_sent	;volatile
  1250  0296  0AB7               	incf	_lum_op_sent,f	;volatile
  1251                           
  1252                           ;L210004 HC.c: 793: }
  1253  0297  2A99               	goto	l5760
  1254  0298                     l5758:	
  1255                           
  1256                           ;L210004 HC.c: 794: else{
  1257                           ;L210004 HC.c: 795: lum_op_sent = 0;
  1258  0298  01B7               	clrf	_lum_op_sent	;volatile
  1259  0299                     l5760:	
  1260                           
  1261                           ;L210004 HC.c: 796: }
  1262                           ;L210004 HC.c: 797: if(!lum_op_sent){
  1263  0299  08B7               	movf	_lum_op_sent,f
  1264  029A  1D03               	skipz
  1265  029B  2AB6               	goto	l5784
  1266                           
  1267                           ;L210004 HC.c: 798: tx_buffer = 'I';
  1268  029C  3049               	movlw	73
  1269                           
  1270                           ;L210004 HC.c: 799: pwr_on = 1;
  1271                           
  1272                           ;L210004 HC.c: 800: tx_flag = 1;
  1273  029D  2433  3180         	fcall	PL5	;call to abstracted procedure
  1274                           
  1275                           ;L210004 HC.c: 801: WDTCON = 0b00100001;
  1276  029F  3021               	movlw	33
  1277  02A0  0021               	movlb	1	; select bank1
  1278  02A1  0097               	movwf	23	;volatile
  1279                           
  1280                           ;L210004 HC.c: 802: SWDTEN = 0;
  1281  02A2  1017               	bcf	23,0
  1282                           
  1283                           ;L210004 HC.c: 803: hc_led_off();
  1284  02A3  2400  3180         	fcall	_hc_led_off
  1285                           
  1286                           ;L210004 HC.c: 804: mode_state = 1;
  1287  02A5  3001               	movlw	1
  1288  02A6  00E7               	movwf	_mode_state	;volatile
  1289  02A7  01E8               	clrf	_mode_state+1	;volatile
  1290  02A8  2AB6               	goto	l5784
  1291  02A9                     l5774:	
  1292                           
  1293                           ;L210004 HC.c: 807: else{
  1294                           ;L210004 HC.c: 808: if(lum_op_sent){
  1295  02A9  0837               	movf	_lum_op_sent,w	;volatile
  1296  02AA  1903               	btfsc	3,2
  1297  02AB  2AB6               	goto	l5784
  1298                           
  1299                           ;L210004 HC.c: 809: tx_buffer = 'K';
  1300  02AC  304B               	movlw	75
  1301  02AD  00C0               	movwf	_tx_buffer	;volatile
  1302                           
  1303                           ;L210004 HC.c: 810: tx_flag = 1;
  1304  02AE  01C1               	clrf	_tx_flag	;volatile
  1305  02AF  0AC1               	incf	_tx_flag,f	;volatile
  1306                           
  1307                           ;L210004 HC.c: 811: WDTCON = 0b00011001;
  1308  02B0  3019               	movlw	25
  1309  02B1  0021               	movlb	1	; select bank1
  1310  02B2  0097               	movwf	23	;volatile
  1311                           
  1312                           ;L210004 HC.c: 812: SWDTEN = 1;
  1313  02B3  1417               	bsf	23,0
  1314                           
  1315                           ;L210004 HC.c: 813: lum_op_sent = 0;
  1316  02B4  0020               	movlb	0	; select bank0
  1317  02B5  01B7               	clrf	_lum_op_sent	;volatile
  1318  02B6                     l5784:	
  1319                           
  1320                           ;L210004 HC.c: 815: }
  1321                           ;L210004 HC.c: 816: }
  1322                           ;L210004 HC.c: 818: if(lum_btn_cl){
  1323  02B6  0834               	movf	_lum_btn_cl,w	;volatile
  1324  02B7  1903               	btfsc	3,2
  1325  02B8  2ACF               	goto	l5806
  1326                           
  1327                           ;L210004 HC.c: 819: if(last_tx[0] == 'J'){
  1328  02B9  0820               	movf	_last_tx,w
  1329  02BA  3A4A               	xorlw	74
  1330  02BB  1D03               	skipz
  1331  02BC  2AC0               	goto	l5790
  1332                           
  1333                           ;L210004 HC.c: 820: lum_cl_sent = 1;
  1334  02BD  01B6               	clrf	_lum_cl_sent	;volatile
  1335  02BE  0AB6               	incf	_lum_cl_sent,f	;volatile
  1336                           
  1337                           ;L210004 HC.c: 821: }
  1338  02BF  2AC1               	goto	l5792
  1339  02C0                     l5790:	
  1340                           
  1341                           ;L210004 HC.c: 822: else{
  1342                           ;L210004 HC.c: 823: lum_cl_sent = 0;
  1343  02C0  01B6               	clrf	_lum_cl_sent	;volatile
  1344  02C1                     l5792:	
  1345                           
  1346                           ;L210004 HC.c: 824: }
  1347                           ;L210004 HC.c: 825: if(!lum_cl_sent){
  1348  02C1  08B6               	movf	_lum_cl_sent,f
  1349  02C2  1D03               	skipz
  1350  02C3  2AD6               	goto	l5816
  1351                           
  1352                           ;L210004 HC.c: 826: tx_buffer = 'J';
  1353  02C4  304A               	movlw	74
  1354                           
  1355                           ;L210004 HC.c: 827: pwr_on = 1;
  1356                           
  1357                           ;L210004 HC.c: 828: tx_flag = 1;
  1358  02C5  2433  3180         	fcall	PL5	;call to abstracted procedure
  1359                           
  1360                           ;L210004 HC.c: 830: SWDTEN = 0;
  1361  02C7  0021               	movlb	1	; select bank1
  1362  02C8  1017               	bcf	23,0
  1363                           
  1364                           ;L210004 HC.c: 831: hc_led_off();
  1365  02C9  2400  3180         	fcall	_hc_led_off
  1366                           
  1367                           ;L210004 HC.c: 832: mode_state = 1;
  1368  02CB  3001               	movlw	1
  1369  02CC  00E7               	movwf	_mode_state	;volatile
  1370  02CD  01E8               	clrf	_mode_state+1	;volatile
  1371  02CE  2AD6               	goto	l5816
  1372  02CF                     l5806:	
  1373                           
  1374                           ;L210004 HC.c: 835: else{
  1375                           ;L210004 HC.c: 836: if(lum_cl_sent){
  1376  02CF  0836               	movf	_lum_cl_sent,w	;volatile
  1377  02D0  1903               	btfsc	3,2
  1378  02D1  2AD6               	goto	l5816
  1379                           
  1380                           ;L210004 HC.c: 837: tx_buffer = 'K';
  1381  02D2  304B               	movlw	75
  1382                           
  1383                           ;L210004 HC.c: 838: tx_flag = 1;
  1384                           
  1385                           ;L210004 HC.c: 840: SWDTEN = 1;
  1386                           
  1387                           ;L210004 HC.c: 841: lum_cl_sent = 0;
  1388  02D3  2420  3180         	fcall	PL2	;call to abstracted procedure
  1389  02D5  01B6               	clrf	_lum_cl_sent	;volatile
  1390  02D6                     l5816:	
  1391                           
  1392                           ;L210004 HC.c: 842: }
  1393                           ;L210004 HC.c: 843: }
  1394                           ;L210004 HC.c: 845: if(hr_btn_op){
  1395  02D6  0831               	movf	_hr_btn_op,w	;volatile
  1396  02D7  1903               	btfsc	3,2
  1397  02D8  2AE8               	goto	l5832
  1398                           
  1399                           ;L210004 HC.c: 846: if(last_tx[0] == 'F'){
  1400  02D9  0820               	movf	_last_tx,w
  1401  02DA  3A46               	xorlw	70
  1402  02DB  1D03               	skipz
  1403  02DC  2AE0               	goto	l5822
  1404                           
  1405                           ;L210004 HC.c: 847: hr_op_sent = 1;
  1406  02DD  01B3               	clrf	_hr_op_sent	;volatile
  1407  02DE  0AB3               	incf	_hr_op_sent,f	;volatile
  1408                           
  1409                           ;L210004 HC.c: 848: }
  1410  02DF  2AE1               	goto	l5824
  1411  02E0                     l5822:	
  1412                           
  1413                           ;L210004 HC.c: 849: else{
  1414                           ;L210004 HC.c: 850: hr_op_sent = 0;
  1415  02E0  01B3               	clrf	_hr_op_sent	;volatile
  1416  02E1                     l5824:	
  1417                           
  1418                           ;L210004 HC.c: 851: }
  1419                           ;L210004 HC.c: 852: if(!hr_op_sent){
  1420  02E1  08B3               	movf	_hr_op_sent,f
  1421  02E2  1D03               	skipz
  1422  02E3  2AEF               	goto	l5842
  1423                           
  1424                           ;L210004 HC.c: 853: tx_buffer = 'F';
  1425  02E4  3046               	movlw	70
  1426                           
  1427                           ;L210004 HC.c: 854: tx_flag = 1;
  1428                           
  1429                           ;L210004 HC.c: 856: SWDTEN = 0;
  1430  02E5  2427  3180         	fcall	PL3	;call to abstracted procedure
  1431  02E7  2AEF               	goto	l5842
  1432  02E8                     l5832:	
  1433                           
  1434                           ;L210004 HC.c: 859: else{
  1435                           ;L210004 HC.c: 860: if(hr_op_sent){
  1436  02E8  0833               	movf	_hr_op_sent,w	;volatile
  1437  02E9  1903               	btfsc	3,2
  1438  02EA  2AEF               	goto	l5842
  1439                           
  1440                           ;L210004 HC.c: 861: tx_buffer = 'H';
  1441  02EB  3048               	movlw	72
  1442                           
  1443                           ;L210004 HC.c: 862: tx_flag = 1;
  1444                           
  1445                           ;L210004 HC.c: 864: SWDTEN = 1;
  1446                           
  1447                           ;L210004 HC.c: 865: hr_op_sent = 0;
  1448  02EC  2420  3180         	fcall	PL2	;call to abstracted procedure
  1449  02EE  01B3               	clrf	_hr_op_sent	;volatile
  1450  02EF                     l5842:	
  1451                           
  1452                           ;L210004 HC.c: 866: }
  1453                           ;L210004 HC.c: 867: }
  1454                           ;L210004 HC.c: 869: if(hr_btn_cl){
  1455  02EF  0020               	movlb	0	; select bank0
  1456  02F0  0830               	movf	_hr_btn_cl,w	;volatile
  1457  02F1  1903               	btfsc	3,2
  1458  02F2  2B02               	goto	l5858
  1459                           
  1460                           ;L210004 HC.c: 870: if(last_tx[0] == 'G'){
  1461  02F3  0820               	movf	_last_tx,w
  1462  02F4  3A47               	xorlw	71
  1463  02F5  1D03               	skipz
  1464  02F6  2AFA               	goto	l5848
  1465                           
  1466                           ;L210004 HC.c: 871: hr_cl_sent = 1;
  1467  02F7  01B2               	clrf	_hr_cl_sent	;volatile
  1468  02F8  0AB2               	incf	_hr_cl_sent,f	;volatile
  1469                           
  1470                           ;L210004 HC.c: 872: }
  1471  02F9  2AFB               	goto	l5850
  1472  02FA                     l5848:	
  1473                           
  1474                           ;L210004 HC.c: 873: else{
  1475                           ;L210004 HC.c: 874: hr_cl_sent = 0;
  1476  02FA  01B2               	clrf	_hr_cl_sent	;volatile
  1477  02FB                     l5850:	
  1478                           
  1479                           ;L210004 HC.c: 875: }
  1480                           ;L210004 HC.c: 876: if(!hr_cl_sent){
  1481  02FB  08B2               	movf	_hr_cl_sent,f
  1482  02FC  1D03               	skipz
  1483  02FD  2B09               	goto	l5868
  1484                           
  1485                           ;L210004 HC.c: 877: tx_buffer = 'G';
  1486  02FE  3047               	movlw	71
  1487                           
  1488                           ;L210004 HC.c: 878: tx_flag = 1;
  1489                           
  1490                           ;L210004 HC.c: 880: SWDTEN = 0;
  1491  02FF  2427  3180         	fcall	PL3	;call to abstracted procedure
  1492  0301  2B09               	goto	l5868
  1493  0302                     l5858:	
  1494                           
  1495                           ;L210004 HC.c: 883: else{
  1496                           ;L210004 HC.c: 884: if(hr_cl_sent){
  1497  0302  0832               	movf	_hr_cl_sent,w	;volatile
  1498  0303  1903               	btfsc	3,2
  1499  0304  2B09               	goto	l5868
  1500                           
  1501                           ;L210004 HC.c: 885: tx_buffer = 'H';
  1502  0305  3048               	movlw	72
  1503                           
  1504                           ;L210004 HC.c: 886: tx_flag = 1;
  1505                           
  1506                           ;L210004 HC.c: 888: SWDTEN = 1;
  1507                           
  1508                           ;L210004 HC.c: 889: hr_cl_sent = 0;
  1509  0306  2420  3180         	fcall	PL2	;call to abstracted procedure
  1510  0308  01B2               	clrf	_hr_cl_sent	;volatile
  1511  0309                     l5868:	
  1512                           
  1513                           ;L210004 HC.c: 890: }
  1514                           ;L210004 HC.c: 891: }
  1515                           ;L210004 HC.c: 893: if(pr_btn_op){
  1516  0309  0020               	movlb	0	; select bank0
  1517  030A  0839               	movf	_pr_btn_op,w	;volatile
  1518  030B  1903               	btfsc	3,2
  1519  030C  2B1C               	goto	l5884
  1520                           
  1521                           ;L210004 HC.c: 894: if(last_tx[0] == 'C'){
  1522  030D  0820               	movf	_last_tx,w
  1523  030E  3A43               	xorlw	67
  1524  030F  1D03               	skipz
  1525  0310  2B14               	goto	l5874
  1526                           
  1527                           ;L210004 HC.c: 895: pr_op_sent = 1;
  1528  0311  01BB               	clrf	_pr_op_sent	;volatile
  1529  0312  0ABB               	incf	_pr_op_sent,f	;volatile
  1530                           
  1531                           ;L210004 HC.c: 896: }
  1532  0313  2B15               	goto	l5876
  1533  0314                     l5874:	
  1534                           
  1535                           ;L210004 HC.c: 897: else{
  1536                           ;L210004 HC.c: 898: pr_op_sent = 0;
  1537  0314  01BB               	clrf	_pr_op_sent	;volatile
  1538  0315                     l5876:	
  1539                           
  1540                           ;L210004 HC.c: 899: }
  1541                           ;L210004 HC.c: 900: if(!pr_op_sent){
  1542  0315  08BB               	movf	_pr_op_sent,f
  1543  0316  1D03               	skipz
  1544  0317  2B23               	goto	l5894
  1545                           
  1546                           ;L210004 HC.c: 901: tx_buffer = 'C';
  1547  0318  3043               	movlw	67
  1548                           
  1549                           ;L210004 HC.c: 902: tx_flag = 1;
  1550                           
  1551                           ;L210004 HC.c: 904: SWDTEN = 0;
  1552  0319  2427  3180         	fcall	PL3	;call to abstracted procedure
  1553  031B  2B23               	goto	l5894
  1554  031C                     l5884:	
  1555                           
  1556                           ;L210004 HC.c: 907: else{
  1557                           ;L210004 HC.c: 908: if(pr_op_sent){
  1558  031C  083B               	movf	_pr_op_sent,w	;volatile
  1559  031D  1903               	btfsc	3,2
  1560  031E  2B23               	goto	l5894
  1561                           
  1562                           ;L210004 HC.c: 909: tx_buffer = 'E';
  1563  031F  3045               	movlw	69
  1564                           
  1565                           ;L210004 HC.c: 910: tx_flag = 1;
  1566                           
  1567                           ;L210004 HC.c: 912: SWDTEN = 1;
  1568                           
  1569                           ;L210004 HC.c: 913: pr_op_sent = 0;
  1570  0320  2420  3180         	fcall	PL2	;call to abstracted procedure
  1571  0322  01BB               	clrf	_pr_op_sent	;volatile
  1572  0323                     l5894:	
  1573                           
  1574                           ;L210004 HC.c: 914: }
  1575                           ;L210004 HC.c: 915: }
  1576                           ;L210004 HC.c: 917: if(pr_btn_cl){
  1577  0323  0020               	movlb	0	; select bank0
  1578  0324  0838               	movf	_pr_btn_cl,w	;volatile
  1579  0325  1903               	btfsc	3,2
  1580  0326  2B36               	goto	l5910
  1581                           
  1582                           ;L210004 HC.c: 918: if(last_tx[0] == 'D'){
  1583  0327  0820               	movf	_last_tx,w
  1584  0328  3A44               	xorlw	68
  1585  0329  1D03               	skipz
  1586  032A  2B2E               	goto	l5900
  1587                           
  1588                           ;L210004 HC.c: 919: pr_cl_sent = 1;
  1589  032B  01BA               	clrf	_pr_cl_sent	;volatile
  1590  032C  0ABA               	incf	_pr_cl_sent,f	;volatile
  1591                           
  1592                           ;L210004 HC.c: 920: }
  1593  032D  2B2F               	goto	l5902
  1594  032E                     l5900:	
  1595                           
  1596                           ;L210004 HC.c: 921: else{
  1597                           ;L210004 HC.c: 922: pr_cl_sent = 0;
  1598  032E  01BA               	clrf	_pr_cl_sent	;volatile
  1599  032F                     l5902:	
  1600                           
  1601                           ;L210004 HC.c: 923: }
  1602                           ;L210004 HC.c: 924: if(!pr_cl_sent){
  1603  032F  08BA               	movf	_pr_cl_sent,f
  1604  0330  1D03               	skipz
  1605  0331  2B3D               	goto	l5920
  1606                           
  1607                           ;L210004 HC.c: 925: tx_buffer = 'D';
  1608  0332  3044               	movlw	68
  1609                           
  1610                           ;L210004 HC.c: 926: tx_flag = 1;
  1611                           
  1612                           ;L210004 HC.c: 928: SWDTEN = 0;
  1613  0333  2427  3180         	fcall	PL3	;call to abstracted procedure
  1614  0335  2B3D               	goto	l5920
  1615  0336                     l5910:	
  1616                           
  1617                           ;L210004 HC.c: 931: else{
  1618                           ;L210004 HC.c: 932: if(pr_cl_sent){
  1619  0336  083A               	movf	_pr_cl_sent,w	;volatile
  1620  0337  1903               	btfsc	3,2
  1621  0338  2B3D               	goto	l5920
  1622                           
  1623                           ;L210004 HC.c: 933: tx_buffer = 'E';
  1624  0339  3045               	movlw	69
  1625                           
  1626                           ;L210004 HC.c: 934: tx_flag = 1;
  1627                           
  1628                           ;L210004 HC.c: 936: SWDTEN = 1;
  1629                           
  1630                           ;L210004 HC.c: 937: pr_cl_sent = 0;
  1631  033A  2420  3180         	fcall	PL2	;call to abstracted procedure
  1632  033C  01BA               	clrf	_pr_cl_sent	;volatile
  1633  033D                     l5920:	
  1634                           
  1635                           ;L210004 HC.c: 938: }
  1636                           ;L210004 HC.c: 939: }
  1637                           ;L210004 HC.c: 941: if(safety < 20*7*20){
  1638  033D  0020               	movlb	0	; select bank0
  1639  033E  0850               	movf	main@safety+1,w
  1640  033F  3A80               	xorlw	128
  1641  0340  00FF               	movwf	127
  1642  0341  308A               	movlw	138
  1643  0342  027F               	subwf	127,w
  1644  0343  1D03               	skipz
  1645  0344  2B47               	goto	u2335
  1646  0345  30F0               	movlw	240
  1647  0346  024F               	subwf	main@safety,w
  1648  0347                     u2335:	
  1649  0347  1803               	skipnc
  1650  0348  2B4E               	goto	l5924
  1651                           
  1652                           ;L210004 HC.c: 942: ++safety;
  1653  0349  0020               	movlb	0	; select bank0
  1654  034A  0ACF               	incf	main@safety,f
  1655  034B  1903               	skipnz
  1656  034C  0AD0               	incf	main@safety+1,f
  1657                           
  1658                           ;L210004 HC.c: 946: }
  1659  034D  2B5E               	goto	l2211
  1660  034E                     l5924:	
  1661                           
  1662                           ;L210004 HC.c: 947: else{
  1663                           ;L210004 HC.c: 948: safety = 0;
  1664  034E  0020               	movlb	0	; select bank0
  1665  034F  01CF               	clrf	main@safety
  1666  0350  01D0               	clrf	main@safety+1
  1667                           
  1668                           ;L210004 HC.c: 949: if(RE0 || RB1 || RA5 || RA4 || RB2 || RB3){
  1669  0351  1C10               	btfss	16,0
  1670  0352  188D               	btfsc	13,1
  1671  0353  2B5E               	goto	l2211
  1672  0354  1E8C               	btfss	12,5
  1673  0355  1A0C               	btfsc	12,4
  1674  0356  2B5E               	goto	l2211
  1675  0357  1D0D               	btfss	13,2
  1676  0358  198D               	btfsc	13,3
  1677  0359  2B5E               	goto	l2211
  1678                           
  1679                           ;L210004 HC.c: 951: else{
  1680                           ;L210004 HC.c: 952: tx_buffer = 'Y';
  1681  035A  3059               	movlw	89
  1682  035B  00C0               	movwf	_tx_buffer	;volatile
  1683                           
  1684                           ;L210004 HC.c: 953: tx_flag = 1;
  1685  035C  01C1               	clrf	_tx_flag	;volatile
  1686  035D  0AC1               	incf	_tx_flag,f	;volatile
  1687  035E                     l2211:	
  1688                           
  1689                           ;L210004 HC.c: 954: }
  1690                           ;L210004 HC.c: 955: }
  1691                           ;L210004 HC.c: 960: if(tx_flag){
  1692  035E  0841               	movf	_tx_flag,w	;volatile
  1693  035F  1903               	btfsc	3,2
  1694  0360  2A14               	goto	l5642
  1695                           
  1696                           ;L210004 HC.c: 961: bool echo = 1;
  1697  0361  01D2               	clrf	main@echo
  1698  0362  0AD2               	incf	main@echo,f
  1699  0363                     l5944:	
  1700                           
  1701                           ;L210004 HC.c: 963: int c = 0;
  1702  0363  01CD               	clrf	main@c
  1703  0364  01CE               	clrf	main@c+1
  1704                           
  1705                           ;L210004 HC.c: 964: for(unsigned int i = 0; i < (sizeof(last_tx)/sizeof((last_tx)[0])); 
      +                          ++i){
  1706  0365  01DD               	clrf	main@i_3356
  1707  0366  01DE               	clrf	main@i_3356+1
  1708  0367                     l5950:	
  1709                           
  1710                           ;L210004 HC.c: 965: putch(tx_buffer);
  1711  0367  0840               	movf	_tx_buffer,w	;volatile
  1712  0368  23BA  3180         	fcall	_putch
  1713                           
  1714                           ;L210004 HC.c: 966: last_tx[i] = tx_buffer;
  1715  036A  0020               	movlb	0	; select bank0
  1716  036B  085D               	movf	main@i_3356,w
  1717  036C  3E20               	addlw	_last_tx& (0+255)
  1718  036D  0086               	movwf	6
  1719  036E  0187               	clrf	7
  1720  036F  0840               	movf	_tx_buffer,w	;volatile
  1721  0370  0081               	movwf	1
  1722                           
  1723                           ;L210004 HC.c: 967: _delay((unsigned long)((5)*(4000000/4000000.0)));
  1724  0371  2B72               	nop2	;2 cycle nop
  1725  0372  2B73               	nop2	;2 cycle nop
  1726  0373  0064               	clrwdt
  1727  0374  0020               	movlb	0	; select bank0
  1728  0375  0ADD               	incf	main@i_3356,f
  1729  0376  1903               	skipnz
  1730  0377  0ADE               	incf	main@i_3356+1,f
  1731  0378  3000               	movlw	0
  1732  0379  025E               	subwf	main@i_3356+1,w
  1733  037A  3005               	movlw	5
  1734  037B  1903               	skipnz
  1735  037C  025D               	subwf	main@i_3356,w
  1736  037D  1C03               	skipc
  1737  037E  2B67               	goto	l5950
  1738                           
  1739                           ;L210004 HC.c: 968: }
  1740                           ;L210004 HC.c: 969: for(unsigned int i = 0; i < (sizeof(rx_char)/sizeof((rx_char)[0])); 
      +                          ++i){
  1741  037F  01DF               	clrf	main@i_3357
  1742  0380  01E0               	clrf	main@i_3357+1
  1743  0381                     l5966:	
  1744                           
  1745                           ;L210004 HC.c: 970: rx_char[i] = getch();
  1746  0381  085F               	movf	main@i_3357,w
  1747  0382  3E25               	addlw	_rx_char& (0+255)
  1748  0383  0086               	movwf	6
  1749  0384  0187               	clrf	7
  1750  0385  23DE  3180         	fcall	_getch
  1751  0387  0081               	movwf	1
  1752  0388  0064               	clrwdt	;#
  1753  0389  0020               	movlb	0	; select bank0
  1754  038A  0ADF               	incf	main@i_3357,f
  1755  038B  1903               	skipnz
  1756  038C  0AE0               	incf	main@i_3357+1,f
  1757  038D  3000               	movlw	0
  1758  038E  0260               	subwf	main@i_3357+1,w
  1759  038F  3005               	movlw	5
  1760  0390  1903               	skipnz
  1761  0391  025F               	subwf	main@i_3357,w
  1762  0392  1C03               	skipc
  1763  0393  2B81               	goto	l5966
  1764                           
  1765                           ;L210004 HC.c: 972: }
  1766                           ;L210004 HC.c: 973: for(unsigned int i = 0; i < (sizeof(last_tx)/sizeof((last_tx)[0])); 
      +                          ++i){
  1767  0394  01E5               	clrf	main@i_3358
  1768  0395  01E6               	clrf	main@i_3358+1
  1769  0396                     l5980:	
  1770                           
  1771                           ;L210004 HC.c: 974: if(last_tx[i] == rx_char[i]){
  1772  0396  0865               	movf	main@i_3358,w
  1773  0397  3E25               	addlw	_rx_char& (0+255)
  1774  0398  0086               	movwf	6
  1775  0399  0187               	clrf	7
  1776  039A  0865               	movf	main@i_3358,w
  1777  039B  242D  3180         	fcall	PL4	;call to abstracted procedure
  1778  039D  1903               	btfsc	3,2
  1779                           
  1780                           ;L210004 HC.c: 975: c++;
  1781  039E  0ACD               	incf	main@c,f
  1782  039F  1903               	skipnz
  1783  03A0  0ACE               	incf	main@c+1,f
  1784  03A1  0AE5               	incf	main@i_3358,f
  1785  03A2  1903               	skipnz
  1786  03A3  0AE6               	incf	main@i_3358+1,f
  1787  03A4  3000               	movlw	0
  1788  03A5  0266               	subwf	main@i_3358+1,w
  1789  03A6  3005               	movlw	5
  1790  03A7  1903               	skipnz
  1791  03A8  0265               	subwf	main@i_3358,w
  1792  03A9  1C03               	skipc
  1793  03AA  2B96               	goto	l5980
  1794                           
  1795                           ;L210004 HC.c: 976: }
  1796                           ;L210004 HC.c: 977: }
  1797                           ;L210004 HC.c: 978: if(c == 5){
  1798  03AB  084D               	movf	main@c,w
  1799  03AC  3A05               	xorlw	5
  1800  03AD  044E               	iorwf	main@c+1,w
  1801  03AE  1D03               	skipz
  1802  03AF  2BB4               	goto	l5992
  1803  03B0  302B               	movlw	43
  1804                           
  1805                           ;L210004 HC.c: 979: echo = 0;
  1806  03B1  01D2               	clrf	main@echo
  1807                           
  1808                           ;L210004 HC.c: 980: putch('+');
  1809  03B2  23BA  3180         	fcall	_putch
  1810  03B4                     l5992:	
  1811                           
  1812                           ;L210004 HC.c: 981: }
  1813                           ;L210004 HC.c: 982: }while(echo);
  1814  03B4  0020               	movlb	0	; select bank0
  1815  03B5  08D2               	movf	main@echo,f
  1816  03B6  1D03               	skipz
  1817  03B7  2B63               	goto	l5944
  1818                           
  1819                           ;L210004 HC.c: 983: tx_flag = 0;
  1820  03B8  01C1               	clrf	_tx_flag	;volatile
  1821  03B9  2A14               	goto	l5642
  1822  03BA                     __end_of_main:	
  1823  03BA                     __ptext248:	
  1824 ;; =============== function _getch ends ============
  1825                           
  1826                           
  1827 ;; *************** function _putch *****************
  1828 ;; Defined at:
  1829 ;;		line 211 in file "L210004 HC.c"
  1830 ;; Parameters:    Size  Location     Type
  1831 ;;  byte            1    wreg     unsigned char 
  1832 ;; Auto vars:     Size  Location     Type
  1833 ;;  byte            1    0[COMMON] unsigned char 
  1834 ;;  count           4    1[COMMON] long 
  1835 ;; Return value:  Size  Location     Type
  1836 ;;		None               void
  1837 ;; Registers used:
  1838 ;;		wreg, status,2, status,0, btemp+1
  1839 ;; Tracked objects:
  1840 ;;		On entry : 0/0
  1841 ;;		On exit  : 1F/3
  1842 ;;		Unchanged: FFFE0/0
  1843 ;; Data sizes:     COMMON   BANK0   BANK1   BANK2   BANK3   BANK4   BANK5   BANK6
  1844 ;;      Params:         0       0       0       0       0       0       0       0
  1845 ;;      Locals:         5       0       0       0       0       0       0       0
  1846 ;;      Temps:          0       0       0       0       0       0       0       0
  1847 ;;      Totals:         5       0       0       0       0       0       0       0
  1848 ;;Total ram usage:        5 bytes
  1849 ;; Hardware stack levels used:    1
  1850 ;; Hardware stack levels required when called:    2
  1851 ;; This function calls:
  1852 ;;		Nothing
  1853 ;; This function is called by:
  1854 ;;		_main
  1855 ;;		_syn_synack_ack
  1856 ;; This function uses a non-reentrant model
  1857 ;;
  1858  03BA                     _putch:	
  1859                           
  1860                           ; Regs used in _putch: [wreg+status,2+status,0+btemp+1]
  1861                           ;putch@byte stored from wreg
  1862  03BA  00F0               	movwf	putch@byte
  1863                           
  1864                           ;L210004 HC.c: 212: long count = 0;
  1865  03BB  01F1               	clrf	putch@count
  1866  03BC  01F2               	clrf	putch@count+1
  1867  03BD  01F3               	clrf	putch@count+2
  1868  03BE  01F4               	clrf	putch@count+3
  1869  03BF                     l2111:	
  1870                           ;L210004 HC.c: 215: while(!TXIF){
  1871                           
  1872  03BF  0020               	movlb	0	; select bank0
  1873  03C0  1A11               	btfsc	17,4
  1874  03C1  2BDA               	goto	l5270
  1875                           
  1876                           ;L210004 HC.c: 217: count++;
  1877  03C2  0AF1               	incf	putch@count,f
  1878  03C3  1903               	skipnz
  1879  03C4  0AF2               	incf	putch@count+1,f
  1880  03C5  1903               	skipnz
  1881  03C6  0AF3               	incf	putch@count+2,f
  1882  03C7  1903               	skipnz
  1883  03C8  0AF4               	incf	putch@count+3,f
  1884                           
  1885                           ;L210004 HC.c: 218: if(count >= 10000000){
  1886  03C9  0874               	movf	putch@count+3,w
  1887  03CA  2439  3180         	fcall	PL6	;call to abstracted procedure
  1888  03CC  1D03               	skipz
  1889  03CD  2BD8               	goto	u1243
  1890  03CE  3098               	movlw	152
  1891  03CF  0273               	subwf	putch@count+2,w
  1892  03D0  1D03               	skipz
  1893  03D1  2BD8               	goto	u1243
  1894  03D2  3096               	movlw	150
  1895  03D3  0272               	subwf	putch@count+1,w
  1896  03D4  1D03               	skipz
  1897  03D5  2BD8               	goto	u1243
  1898  03D6  3080               	movlw	128
  1899  03D7  0271               	subwf	putch@count,w
  1900  03D8                     u1243:	
  1901  03D8  1C03               	skipc
  1902  03D9  2BBF               	goto	l2111
  1903  03DA                     l5270:	
  1904                           
  1905                           ;L210004 HC.c: 220: }
  1906                           ;L210004 HC.c: 221: }
  1907                           ;L210004 HC.c: 222: TXREG = byte;
  1908  03DA  0870               	movf	putch@byte,w
  1909  03DB  0023               	movlb	3	; select bank3
  1910  03DC  009A               	movwf	26	;volatile
  1911  03DD  0008               	return
  1912  03DE                     __end_of_putch:	
  1913  03DE                     __ptext247:	
  1914 ;; =============== function _hc_led_on ends ============
  1915                           
  1916                           
  1917 ;; *************** function _getch *****************
  1918 ;; Defined at:
  1919 ;;		line 227 in file "L210004 HC.c"
  1920 ;; Parameters:    Size  Location     Type
  1921 ;;		None
  1922 ;; Auto vars:     Size  Location     Type
  1923 ;;  count           4    0[COMMON] long 
  1924 ;; Return value:  Size  Location     Type
  1925 ;;                  1    wreg      unsigned char 
  1926 ;; Registers used:
  1927 ;;		wreg, status,2, status,0, btemp+1
  1928 ;; Tracked objects:
  1929 ;;		On entry : 1C/0
  1930 ;;		On exit  : 1F/3
  1931 ;;		Unchanged: FFFE0/0
  1932 ;; Data sizes:     COMMON   BANK0   BANK1   BANK2   BANK3   BANK4   BANK5   BANK6
  1933 ;;      Params:         0       0       0       0       0       0       0       0
  1934 ;;      Locals:         4       0       0       0       0       0       0       0
  1935 ;;      Temps:          0       0       0       0       0       0       0       0
  1936 ;;      Totals:         4       0       0       0       0       0       0       0
  1937 ;;Total ram usage:        4 bytes
  1938 ;; Hardware stack levels used:    1
  1939 ;; Hardware stack levels required when called:    2
  1940 ;; This function calls:
  1941 ;;		Nothing
  1942 ;; This function is called by:
  1943 ;;		_main
  1944 ;;		_syn_synack_ack
  1945 ;; This function uses a non-reentrant model
  1946 ;;
  1947  03DE                     _getch:	
  1948                           
  1949                           ;L210004 HC.c: 228: long count = 0;
  1950                           
  1951                           ; Regs used in _getch: [wreg+status,2+status,0+btemp+1]
  1952  03DE  01F0               	clrf	getch@count
  1953  03DF  01F1               	clrf	getch@count+1
  1954  03E0  01F2               	clrf	getch@count+2
  1955  03E1  01F3               	clrf	getch@count+3
  1956  03E2                     l2118:	
  1957                           ;L210004 HC.c: 231: while(!RCIF){
  1958                           
  1959  03E2  0020               	movlb	0	; select bank0
  1960  03E3  1A91               	btfsc	17,5
  1961  03E4  2BFD               	goto	l5280
  1962                           
  1963                           ;L210004 HC.c: 233: count++;
  1964  03E5  0AF0               	incf	getch@count,f
  1965  03E6  1903               	skipnz
  1966  03E7  0AF1               	incf	getch@count+1,f
  1967  03E8  1903               	skipnz
  1968  03E9  0AF2               	incf	getch@count+2,f
  1969  03EA  1903               	skipnz
  1970  03EB  0AF3               	incf	getch@count+3,f
  1971                           
  1972                           ;L210004 HC.c: 234: if(count >= 10000000){
  1973  03EC  0873               	movf	getch@count+3,w
  1974  03ED  2439  3180         	fcall	PL6	;call to abstracted procedure
  1975  03EF  1D03               	skipz
  1976  03F0  2BFB               	goto	u1263
  1977  03F1  3098               	movlw	152
  1978  03F2  0272               	subwf	getch@count+2,w
  1979  03F3  1D03               	skipz
  1980  03F4  2BFB               	goto	u1263
  1981  03F5  3096               	movlw	150
  1982  03F6  0271               	subwf	getch@count+1,w
  1983  03F7  1D03               	skipz
  1984  03F8  2BFB               	goto	u1263
  1985  03F9  3080               	movlw	128
  1986  03FA  0270               	subwf	getch@count,w
  1987  03FB                     u1263:	
  1988  03FB  1C03               	skipc
  1989  03FC  2BE2               	goto	l2118
  1990  03FD                     l5280:	
  1991                           
  1992                           ;L210004 HC.c: 236: }
  1993                           ;L210004 HC.c: 237: }
  1994                           ;L210004 HC.c: 239: return RCREG;
  1995  03FD  0023               	movlb	3	; select bank3
  1996  03FE  0819               	movf	25,w	;volatile
  1997  03FF  0008               	return
  1998  0400                     __end_of_getch:	
  1999  0400                     __ptext245:	
  2000 ;; =============== function _syn_synack_ack ends ============
  2001                           
  2002                           
  2003 ;; *************** function _hc_led_off *****************
  2004 ;; Defined at:
  2005 ;;		line 1105 in file "L210004 HC.c"
  2006 ;; Parameters:    Size  Location     Type
  2007 ;;		None
  2008 ;; Auto vars:     Size  Location     Type
  2009 ;;		None
  2010 ;; Return value:  Size  Location     Type
  2011 ;;		None               void
  2012 ;; Registers used:
  2013 ;;		status,2
  2014 ;; Tracked objects:
  2015 ;;		On entry : 0/0
  2016 ;;		On exit  : 1F/0
  2017 ;;		Unchanged: FFFE0/0
  2018 ;; Data sizes:     COMMON   BANK0   BANK1   BANK2   BANK3   BANK4   BANK5   BANK6
  2019 ;;      Params:         0       0       0       0       0       0       0       0
  2020 ;;      Locals:         0       0       0       0       0       0       0       0
  2021 ;;      Temps:          0       0       0       0       0       0       0       0
  2022 ;;      Totals:         0       0       0       0       0       0       0       0
  2023 ;;Total ram usage:        0 bytes
  2024 ;; Hardware stack levels used:    1
  2025 ;; Hardware stack levels required when called:    2
  2026 ;; This function calls:
  2027 ;;		Nothing
  2028 ;; This function is called by:
  2029 ;;		_main
  2030 ;;		_connection_est
  2031 ;; This function uses a non-reentrant model
  2032 ;;
  2033  0400                     _hc_led_off:	
  2034                           
  2035                           ;L210004 HC.c: 1106: LATD0 = 1;
  2036                           
  2037                           ; Regs used in _hc_led_off: [status,2]
  2038  0400  0022               	movlb	2	; select bank2
  2039  0401  140F               	bsf	15,0
  2040                           
  2041                           ;L210004 HC.c: 1111: z0_on = 1;
  2042  0402  01FA               	clrf	_z0_on	;volatile
  2043  0403  0AFA               	incf	_z0_on,f	;volatile
  2044                           
  2045                           ;L210004 HC.c: 1112: z0_off = 0;
  2046  0404  01FD               	clrf	_z0_off	;volatile
  2047                           
  2048                           ;L210004 HC.c: 1114: z1_on = 1;
  2049  0405  01FC               	clrf	_z1_on	;volatile
  2050  0406  0AFC               	incf	_z1_on,f	;volatile
  2051                           
  2052                           ;L210004 HC.c: 1115: z1_off = 0;
  2053  0407  01FB               	clrf	_z1_off	;volatile
  2054                           
  2055                           ;L210004 HC.c: 1117: z2_on = 1;
  2056  0408  0020               	movlb	0	; select bank0
  2057  0409  01C5               	clrf	_z2_on	;volatile
  2058  040A  0AC5               	incf	_z2_on,f	;volatile
  2059                           
  2060                           ;L210004 HC.c: 1118: z2_off = 0;
  2061  040B  01C4               	clrf	_z2_off	;volatile
  2062                           
  2063                           ;L210004 HC.c: 1120: z3_on = 1;
  2064  040C  01ED               	clrf	_z3_on	;volatile
  2065  040D  0AED               	incf	_z3_on,f	;volatile
  2066                           
  2067                           ;L210004 HC.c: 1121: z3_off = 0;
  2068  040E  01C7               	clrf	_z3_off	;volatile
  2069  040F  0008               	return
  2070  0410                     __end_of_hc_led_off:	
  2071  0410                     __ptext246:	
  2072 ;; =============== function _hc_led_off ends ============
  2073                           
  2074                           
  2075 ;; *************** function _hc_led_on *****************
  2076 ;; Defined at:
  2077 ;;		line 1089 in file "L210004 HC.c"
  2078 ;; Parameters:    Size  Location     Type
  2079 ;;		None
  2080 ;; Auto vars:     Size  Location     Type
  2081 ;;		None
  2082 ;; Return value:  Size  Location     Type
  2083 ;;		None               void
  2084 ;; Registers used:
  2085 ;;		status,2
  2086 ;; Tracked objects:
  2087 ;;		On entry : 0/0
  2088 ;;		On exit  : 1F/0
  2089 ;;		Unchanged: FFFE0/0
  2090 ;; Data sizes:     COMMON   BANK0   BANK1   BANK2   BANK3   BANK4   BANK5   BANK6
  2091 ;;      Params:         0       0       0       0       0       0       0       0
  2092 ;;      Locals:         0       0       0       0       0       0       0       0
  2093 ;;      Temps:          0       0       0       0       0       0       0       0
  2094 ;;      Totals:         0       0       0       0       0       0       0       0
  2095 ;;Total ram usage:        0 bytes
  2096 ;; Hardware stack levels used:    1
  2097 ;; Hardware stack levels required when called:    2
  2098 ;; This function calls:
  2099 ;;		Nothing
  2100 ;; This function is called by:
  2101 ;;		_main
  2102 ;;		_connection_est
  2103 ;; This function uses a non-reentrant model
  2104 ;;
  2105  0410                     _hc_led_on:	
  2106                           
  2107                           ;L210004 HC.c: 1090: LATD0 = 0;
  2108                           
  2109                           ; Regs used in _hc_led_on: [status,2]
  2110  0410  0022               	movlb	2	; select bank2
  2111  0411  100F               	bcf	15,0
  2112                           
  2113                           ;L210004 HC.c: 1092: z0_off = 1;
  2114  0412  01FD               	clrf	_z0_off	;volatile
  2115  0413  0AFD               	incf	_z0_off,f	;volatile
  2116                           
  2117                           ;L210004 HC.c: 1093: z0_on = 0;
  2118  0414  01FA               	clrf	_z0_on	;volatile
  2119                           
  2120                           ;L210004 HC.c: 1095: z1_off = 1;
  2121  0415  01FB               	clrf	_z1_off	;volatile
  2122  0416  0AFB               	incf	_z1_off,f	;volatile
  2123                           
  2124                           ;L210004 HC.c: 1096: z1_on = 0;
  2125  0417  01FC               	clrf	_z1_on	;volatile
  2126                           
  2127                           ;L210004 HC.c: 1098: z2_off = 1;
  2128  0418  0020               	movlb	0	; select bank0
  2129  0419  01C4               	clrf	_z2_off	;volatile
  2130  041A  0AC4               	incf	_z2_off,f	;volatile
  2131                           
  2132                           ;L210004 HC.c: 1099: z2_on = 0;
  2133  041B  01C5               	clrf	_z2_on	;volatile
  2134                           
  2135                           ;L210004 HC.c: 1101: z3_off = 1;
  2136  041C  01C7               	clrf	_z3_off	;volatile
  2137  041D  0AC7               	incf	_z3_off,f	;volatile
  2138                           
  2139                           ;L210004 HC.c: 1102: z3_on = 0;
  2140  041E  01ED               	clrf	_z3_on	;volatile
  2141  041F  0008               	return
  2142  0420                     __end_of_hc_led_on:	
  2143  0420                     PL2:	
  2144  0420  00C0               	movwf	_tx_buffer	;volatile
  2145  0421  01C1               	clrf	_tx_flag	;volatile
  2146  0422  0AC1               	incf	_tx_flag,f	;volatile
  2147  0423  0021               	movlb	1	; select bank1
  2148  0424  1417               	bsf	23,0
  2149  0425  0020               	movlb	0	; select bank0
  2150  0426  0008               	return
  2151  0427                     PL3:	
  2152  0427  00C0               	movwf	_tx_buffer	;volatile
  2153  0428  01C1               	clrf	_tx_flag	;volatile
  2154  0429  0AC1               	incf	_tx_flag,f	;volatile
  2155  042A  0021               	movlb	1	; select bank1
  2156  042B  1017               	bcf	23,0
  2157  042C  0008               	return
  2158  042D                     PL4:	
  2159  042D  3E20               	addlw	_last_tx& (0+255)
  2160  042E  0084               	movwf	4
  2161  042F  0185               	clrf	5
  2162  0430  0800               	movf	0,w
  2163  0431  0601               	xorwf	1,w
  2164  0432  0008               	return
  2165  0433                     PL5:	
  2166  0433  00C0               	movwf	_tx_buffer	;volatile
  2167  0434  01EC               	clrf	_pwr_on	;volatile
  2168  0435  0AEC               	incf	_pwr_on,f	;volatile
  2169  0436  01C1               	clrf	_tx_flag	;volatile
  2170  0437  0AC1               	incf	_tx_flag,f	;volatile
  2171  0438  0008               	return
  2172  0439                     PL6:	
  2173  0439  3A80               	xorlw	128
  2174  043A  00FF               	movwf	127
  2175  043B  3080               	movlw	128
  2176  043C  027F               	subwf	127,w
  2177  043D  0008               	return
  2178                           
  2179                           	psect	bssCOMMON
  2180  007D                     __pbssCOMMON:	
  2181  007D                     _z0_off:	
  2182  007D                     	ds	1
  2183                           
  2184                           	psect	dataCOMMON
  2185  007A                     __pdataCOMMON:	
  2186  007A                     _z0_on:	
  2187  007A                     	ds	1
  2188  007B                     _z1_off:	
  2189  007B                     	ds	1
  2190  007C                     _z1_on:	
  2191  007C                     	ds	1
  2192                           
  2193                           	psect	bssBANK0
  2194  0020                     __pbssBANK0:	
  2195  0020                     _last_tx:	
  2196  0020                     	ds	5
  2197  0025                     _rx_char:	
  2198  0025                     	ds	5
  2199  002A                     _heat_timeout:	
  2200  002A                     	ds	2
  2201  002C                     _massage_timeout:	
  2202  002C                     	ds	2
  2203  002E                     _heat_off:	
  2204  002E                     	ds	1
  2205  002F                     _heat_sent:	
  2206  002F                     	ds	1
  2207  0030                     _hr_btn_cl:	
  2208  0030                     	ds	1
  2209  0031                     _hr_btn_op:	
  2210  0031                     	ds	1
  2211  0032                     _hr_cl_sent:	
  2212  0032                     	ds	1
  2213  0033                     _hr_op_sent:	
  2214  0033                     	ds	1
  2215  0034                     _lum_btn_cl:	
  2216  0034                     	ds	1
  2217  0035                     _lum_btn_op:	
  2218  0035                     	ds	1
  2219  0036                     _lum_cl_sent:	
  2220  0036                     	ds	1
  2221  0037                     _lum_op_sent:	
  2222  0037                     	ds	1
  2223  0038                     _pr_btn_cl:	
  2224  0038                     	ds	1
  2225  0039                     _pr_btn_op:	
  2226  0039                     	ds	1
  2227  003A                     _pr_cl_sent:	
  2228  003A                     	ds	1
  2229  003B                     _pr_op_sent:	
  2230  003B                     	ds	1
  2231  003C                     _pwr_btn_flg:	
  2232  003C                     	ds	1
  2233  003D                     _pwr_flg:	
  2234  003D                     	ds	1
  2235  003E                     _pwr_off:	
  2236  003E                     	ds	1
  2237  003F                     _pwr_sent:	
  2238  003F                     	ds	1
  2239  0040                     _tx_buffer:	
  2240  0040                     	ds	1
  2241  0041                     _tx_flag:	
  2242  0041                     	ds	1
  2243  0042                     _z0_sent:	
  2244  0042                     	ds	1
  2245  0043                     _z1_sent:	
  2246  0043                     	ds	1
  2247  0044                     _z2_off:	
  2248  0044                     	ds	1
  2249  0045                     _z2_on:	
  2250  0045                     	ds	1
  2251  0046                     _z2_sent:	
  2252  0046                     	ds	1
  2253  0047                     _z3_off:	
  2254  0047                     	ds	1
  2255  0048                     _z3_sent:	
  2256  0048                     	ds	1
  2257                           
  2258                           	psect	dataBANK0
  2259  0067                     __pdataBANK0:	
  2260  0067                     _mode_state:	
  2261  0067                     	ds	2
  2262  0069                     _time_out:	
  2263  0069                     	ds	2
  2264  006B                     _heat_on:	
  2265  006B                     	ds	1
  2266  006C                     _pwr_on:	
  2267  006C                     	ds	1
  2268  006D                     _z3_on:	
  2269  006D                     	ds	1
  2270                           
  2271                           	psect	clrtext
  2272  044E                     clear_ram:	
  2273                           ;	Called with FSR0 containing the base address, and
  2274                           ;	WREG with the size to clear
  2275                           
  2276  044E  0064               	clrwdt	;clear the watchdog before getting into this loop
  2277  044F                     clrloop:	
  2278  044F  0180               	clrf	0	;clear RAM location pointed to by FSR
  2279  0450  3101               	addfsr 0,1
  2280  0451  0B89               	decfsz	9,f	;Have we reached the end of clearing yet?
  2281  0452  2C4F               	goto	clrloop	;have we reached the end yet?
  2282  0453  3400               	retlw	0	;all done for this memory range, return
  2283                           
  2284                           	psect	cstackCOMMON
  2285  0070                     __pcstackCOMMON:	
  2286  0070                     ?_connection_est:	
  2287  0070                     ??_connection_est:	
  2288                           ; 0 bytes @ 0x0
  2289                           
  2290  0070                     ?_hc_led_on:	
  2291                           ; 0 bytes @ 0x0
  2292                           
  2293  0070                     ??_hc_led_on:	
  2294                           ; 0 bytes @ 0x0
  2295                           
  2296  0070                     ?_hc_led_off:	
  2297                           ; 0 bytes @ 0x0
  2298                           
  2299  0070                     ??_hc_led_off:	
  2300                           ; 0 bytes @ 0x0
  2301                           
  2302  0070                     ?_putch:	
  2303                           ; 0 bytes @ 0x0
  2304                           
  2305  0070                     ??_putch:	
  2306                           ; 0 bytes @ 0x0
  2307                           
  2308  0070                     ??_getch:	
  2309                           ; 0 bytes @ 0x0
  2310                           
  2311  0070                     ?_main:	
  2312                           ; 0 bytes @ 0x0
  2313                           
  2314  0070                     ?_isr:	
  2315                           ; 0 bytes @ 0x0
  2316                           
  2317  0070                     ??_isr:	
  2318                           ; 0 bytes @ 0x0
  2319                           
  2320  0070                     ?i1_hc_led_off:	
  2321                           ; 0 bytes @ 0x0
  2322                           
  2323  0070                     ??i1_hc_led_off:	
  2324                           ; 0 bytes @ 0x0
  2325                           
  2326  0070                     ?_syn_synack_ack:	
  2327                           ; 0 bytes @ 0x0
  2328                           
  2329  0070                     ?_getch:	
  2330                           ; 1 bytes @ 0x0
  2331                           
  2332  0070                     putch@byte:	
  2333                           ; 1 bytes @ 0x0
  2334                           
  2335  0070                     getch@count:	
  2336                           ; 1 bytes @ 0x0
  2337                           
  2338                           
  2339                           ; 4 bytes @ 0x0
  2340  0070                     	ds	1
  2341  0071                     putch@count:	
  2342                           
  2343                           ; 4 bytes @ 0x1
  2344  0071                     	ds	1
  2345  0072                     connection_est@i:	
  2346                           
  2347                           ; 2 bytes @ 0x2
  2348  0072                     	ds	3
  2349  0075                     ??_syn_synack_ack:	
  2350  0075                     syn_synack_ack@c:	
  2351                           ; 0 bytes @ 0x5
  2352                           
  2353                           
  2354                           ; 1 bytes @ 0x5
  2355  0075                     	ds	1
  2356  0076                     syn_synack_ack@echo:	
  2357                           
  2358                           ; 1 bytes @ 0x6
  2359  0076                     	ds	1
  2360  0077                     ??_main:	
  2361                           
  2362                           ; 0 bytes @ 0x7
  2363  0077                     	ds	3
  2364                           
  2365                           	psect	cstackBANK0
  2366  0049                     __pcstackBANK0:	
  2367  0049                     main@heat_de:	
  2368                           
  2369                           ; 2 bytes @ 0x0
  2370  0049                     	ds	2
  2371  004B                     main@power_de:	
  2372                           
  2373                           ; 2 bytes @ 0x2
  2374  004B                     	ds	2
  2375  004D                     main@c:	
  2376                           
  2377                           ; 2 bytes @ 0x4
  2378  004D                     	ds	2
  2379  004F                     main@safety:	
  2380                           
  2381                           ; 2 bytes @ 0x6
  2382  004F                     	ds	2
  2383  0051                     main@connect_ack:	
  2384                           
  2385                           ; 1 bytes @ 0x8
  2386  0051                     	ds	1
  2387  0052                     main@echo:	
  2388                           
  2389                           ; 1 bytes @ 0x9
  2390  0052                     	ds	1
  2391  0053                     main@x:	
  2392                           
  2393                           ; 2 bytes @ 0xA
  2394  0053                     	ds	2
  2395  0055                     main@i:	
  2396                           
  2397                           ; 2 bytes @ 0xC
  2398  0055                     	ds	2
  2399  0057                     main@i_3349:	
  2400                           
  2401                           ; 2 bytes @ 0xE
  2402  0057                     	ds	2
  2403  0059                     main@i_3351:	
  2404                           
  2405                           ; 2 bytes @ 0x10
  2406  0059                     	ds	2
  2407  005B                     main@i_3352:	
  2408                           
  2409                           ; 2 bytes @ 0x12
  2410  005B                     	ds	2
  2411  005D                     main@i_3356:	
  2412                           
  2413                           ; 2 bytes @ 0x14
  2414  005D                     	ds	2
  2415  005F                     main@i_3357:	
  2416                           
  2417                           ; 2 bytes @ 0x16
  2418  005F                     	ds	2
  2419  0061                     main@i_3350:	
  2420                           
  2421                           ; 2 bytes @ 0x18
  2422  0061                     	ds	2
  2423  0063                     main@i_3353:	
  2424                           
  2425                           ; 2 bytes @ 0x1A
  2426  0063                     	ds	2
  2427  0065                     main@i_3358:	
  2428                           
  2429                           ; 2 bytes @ 0x1C
  2430  0065                     	ds	2
  2431                           
  2432                           	psect	intentry
  2433  0004                     __pintentry:	
  2434 ;; =============== function _putch ends ============
  2435                           
  2436                           
  2437 ;; *************** function _isr *****************
  2438 ;; Defined at:
  2439 ;;		line 988 in file "L210004 HC.c"
  2440 ;; Parameters:    Size  Location     Type
  2441 ;;		None
  2442 ;; Auto vars:     Size  Location     Type
  2443 ;;		None
  2444 ;; Return value:  Size  Location     Type
  2445 ;;		None               void
  2446 ;; Registers used:
  2447 ;;		wreg, status,2, status,0, pclath, cstack
  2448 ;; Tracked objects:
  2449 ;;		On entry : 0/0
  2450 ;;		On exit  : 0/0
  2451 ;;		Unchanged: FFFE0/0
  2452 ;; Data sizes:     COMMON   BANK0   BANK1   BANK2   BANK3   BANK4   BANK5   BANK6
  2453 ;;      Params:         0       0       0       0       0       0       0       0
  2454 ;;      Locals:         0       0       0       0       0       0       0       0
  2455 ;;      Temps:          0       0       0       0       0       0       0       0
  2456 ;;      Totals:         0       0       0       0       0       0       0       0
  2457 ;;Total ram usage:        0 bytes
  2458 ;; Hardware stack levels used:    1
  2459 ;; Hardware stack levels required when called:    1
  2460 ;; This function calls:
  2461 ;;		i1_hc_led_off
  2462 ;; This function is called by:
  2463 ;;		Interrupt level 1
  2464 ;; This function uses a non-reentrant model
  2465 ;;
  2466  0004                     _isr:	
  2467                           
  2468                           ; Regs used in _isr: [wreg+status,2+status,0+pclath+cstack]
  2469  0004  3180               	pagesel	$
  2470                           
  2471                           ;L210004 HC.c: 989: if(TMR0IF){
  2472  0005  1D0B               	btfss	11,2
  2473  0006  0009               	retfie
  2474                           
  2475                           ;L210004 HC.c: 1002: if(RE0){
  2476  0007  0020               	movlb	0	; select bank0
  2477  0008  1C10               	btfss	16,0
  2478  0009  2818               	goto	i1l5322
  2479                           
  2480                           ;L210004 HC.c: 1003: if(RB1 || RA5 || RA4 || RB2 || RB3 || RB4 || RD1){
  2481  000A  1C8D               	btfss	13,1
  2482  000B  1A8C               	btfsc	12,5
  2483  000C  2819               	goto	i1l5324
  2484  000D  1E0C               	btfss	12,4
  2485  000E  190D               	btfsc	13,2
  2486  000F  2819               	goto	i1l5324
  2487  0010  1D8D               	btfss	13,3
  2488  0011  1A0D               	btfsc	13,4
  2489  0012  2819               	goto	i1l5324
  2490  0013  188F               	btfsc	15,1
  2491  0014  2819               	goto	i1l5324
  2492                           
  2493                           ;L210004 HC.c: 1005: else{
  2494                           ;L210004 HC.c: 1006: lum_btn_op = 1;
  2495  0015  01B5               	clrf	_lum_btn_op	;volatile
  2496  0016  0AB5               	incf	_lum_btn_op,f	;volatile
  2497  0017  2819               	goto	i1l5324
  2498  0018                     i1l5322:	
  2499                           
  2500                           ;L210004 HC.c: 1009: else{
  2501                           ;L210004 HC.c: 1010: lum_btn_op = 0;
  2502  0018  01B5               	clrf	_lum_btn_op	;volatile
  2503  0019                     i1l5324:	
  2504                           
  2505                           ;L210004 HC.c: 1011: }
  2506                           ;L210004 HC.c: 1013: if(RB1){
  2507  0019  1C8D               	btfss	13,1
  2508  001A  2829               	goto	i1l5340
  2509                           
  2510                           ;L210004 HC.c: 1014: if(RE0 || RA5 || RA4 || RB2 || RB3 || RB4 || RD1){
  2511  001B  1C10               	btfss	16,0
  2512  001C  1A8C               	btfsc	12,5
  2513  001D  282A               	goto	i1l5342
  2514  001E  1E0C               	btfss	12,4
  2515  001F  190D               	btfsc	13,2
  2516  0020  282A               	goto	i1l5342
  2517  0021  1D8D               	btfss	13,3
  2518  0022  1A0D               	btfsc	13,4
  2519  0023  282A               	goto	i1l5342
  2520  0024  188F               	btfsc	15,1
  2521  0025  282A               	goto	i1l5342
  2522                           
  2523                           ;L210004 HC.c: 1016: else{
  2524                           ;L210004 HC.c: 1017: lum_btn_cl = 1;
  2525  0026  01B4               	clrf	_lum_btn_cl	;volatile
  2526  0027  0AB4               	incf	_lum_btn_cl,f	;volatile
  2527  0028  282A               	goto	i1l5342
  2528  0029                     i1l5340:	
  2529                           
  2530                           ;L210004 HC.c: 1020: else{
  2531                           ;L210004 HC.c: 1021: lum_btn_cl = 0;
  2532  0029  01B4               	clrf	_lum_btn_cl	;volatile
  2533  002A                     i1l5342:	
  2534                           
  2535                           ;L210004 HC.c: 1022: }
  2536                           ;L210004 HC.c: 1024: if(RA5){
  2537  002A  1E8C               	btfss	12,5
  2538  002B  283A               	goto	i1l5358
  2539                           
  2540                           ;L210004 HC.c: 1025: if(RB2 || RA4 || RB3 || RE0 || RB1 || RB4 || RD1){
  2541  002C  1D0D               	btfss	13,2
  2542  002D  1A0C               	btfsc	12,4
  2543  002E  283B               	goto	i1l5360
  2544  002F  1D8D               	btfss	13,3
  2545  0030  1810               	btfsc	16,0
  2546  0031  283B               	goto	i1l5360
  2547  0032  1C8D               	btfss	13,1
  2548  0033  1A0D               	btfsc	13,4
  2549  0034  283B               	goto	i1l5360
  2550  0035  188F               	btfsc	15,1
  2551  0036  283B               	goto	i1l5360
  2552                           
  2553                           ;L210004 HC.c: 1027: else{
  2554                           ;L210004 HC.c: 1028: pr_btn_op = 1;
  2555  0037  01B9               	clrf	_pr_btn_op	;volatile
  2556  0038  0AB9               	incf	_pr_btn_op,f	;volatile
  2557  0039  283B               	goto	i1l5360
  2558  003A                     i1l5358:	
  2559                           
  2560                           ;L210004 HC.c: 1031: else{
  2561                           ;L210004 HC.c: 1032: pr_btn_op = 0;
  2562  003A  01B9               	clrf	_pr_btn_op	;volatile
  2563  003B                     i1l5360:	
  2564                           
  2565                           ;L210004 HC.c: 1033: }
  2566                           ;L210004 HC.c: 1035: if(RB2){
  2567  003B  1D0D               	btfss	13,2
  2568  003C  284B               	goto	i1l5376
  2569                           
  2570                           ;L210004 HC.c: 1036: if(RA5 || RA4 || RB3 || RE0 || RB1 || RB4 || RD1){
  2571  003D  1E8C               	btfss	12,5
  2572  003E  1A0C               	btfsc	12,4
  2573  003F  284C               	goto	i1l5378
  2574  0040  1D8D               	btfss	13,3
  2575  0041  1810               	btfsc	16,0
  2576  0042  284C               	goto	i1l5378
  2577  0043  1C8D               	btfss	13,1
  2578  0044  1A0D               	btfsc	13,4
  2579  0045  284C               	goto	i1l5378
  2580  0046  188F               	btfsc	15,1
  2581  0047  284C               	goto	i1l5378
  2582                           
  2583                           ;L210004 HC.c: 1038: else{
  2584                           ;L210004 HC.c: 1039: pr_btn_cl = 1;
  2585  0048  01B8               	clrf	_pr_btn_cl	;volatile
  2586  0049  0AB8               	incf	_pr_btn_cl,f	;volatile
  2587  004A  284C               	goto	i1l5378
  2588  004B                     i1l5376:	
  2589                           
  2590                           ;L210004 HC.c: 1042: else{
  2591                           ;L210004 HC.c: 1043: pr_btn_cl = 0;
  2592  004B  01B8               	clrf	_pr_btn_cl	;volatile
  2593  004C                     i1l5378:	
  2594                           
  2595                           ;L210004 HC.c: 1044: }
  2596                           ;L210004 HC.c: 1046: if(RA4){
  2597  004C  1E0C               	btfss	12,4
  2598  004D  285C               	goto	i1l5394
  2599                           
  2600                           ;L210004 HC.c: 1047: if(RB3 || RA5 || RB2 || RE0 || RB1 || RB4 || RD1){
  2601  004E  1D8D               	btfss	13,3
  2602  004F  1A8C               	btfsc	12,5
  2603  0050  285D               	goto	i1l5396
  2604  0051  1D0D               	btfss	13,2
  2605  0052  1810               	btfsc	16,0
  2606  0053  285D               	goto	i1l5396
  2607  0054  1C8D               	btfss	13,1
  2608  0055  1A0D               	btfsc	13,4
  2609  0056  285D               	goto	i1l5396
  2610  0057  188F               	btfsc	15,1
  2611  0058  285D               	goto	i1l5396
  2612                           
  2613                           ;L210004 HC.c: 1049: else{
  2614                           ;L210004 HC.c: 1050: hr_btn_op = 1;
  2615  0059  01B1               	clrf	_hr_btn_op	;volatile
  2616  005A  0AB1               	incf	_hr_btn_op,f	;volatile
  2617  005B  285D               	goto	i1l5396
  2618  005C                     i1l5394:	
  2619                           
  2620                           ;L210004 HC.c: 1053: else{
  2621                           ;L210004 HC.c: 1054: hr_btn_op = 0;
  2622  005C  01B1               	clrf	_hr_btn_op	;volatile
  2623  005D                     i1l5396:	
  2624                           
  2625                           ;L210004 HC.c: 1055: }
  2626                           ;L210004 HC.c: 1057: if(RB3){
  2627  005D  1D8D               	btfss	13,3
  2628  005E  286D               	goto	i1l5412
  2629                           
  2630                           ;L210004 HC.c: 1058: if(RA4 || RA5 || RB2 || RE0 || RB1 || RB4 || RD1){
  2631  005F  1E0C               	btfss	12,4
  2632  0060  1A8C               	btfsc	12,5
  2633  0061  286E               	goto	i1l5414
  2634  0062  1D0D               	btfss	13,2
  2635  0063  1810               	btfsc	16,0
  2636  0064  286E               	goto	i1l5414
  2637  0065  1C8D               	btfss	13,1
  2638  0066  1A0D               	btfsc	13,4
  2639  0067  286E               	goto	i1l5414
  2640  0068  188F               	btfsc	15,1
  2641  0069  286E               	goto	i1l5414
  2642                           
  2643                           ;L210004 HC.c: 1060: else{
  2644                           ;L210004 HC.c: 1061: hr_btn_cl = 1;
  2645  006A  01B0               	clrf	_hr_btn_cl	;volatile
  2646  006B  0AB0               	incf	_hr_btn_cl,f	;volatile
  2647  006C  286E               	goto	i1l5414
  2648  006D                     i1l5412:	
  2649                           
  2650                           ;L210004 HC.c: 1064: else{
  2651                           ;L210004 HC.c: 1065: hr_btn_cl = 0;
  2652  006D  01B0               	clrf	_hr_btn_cl	;volatile
  2653  006E                     i1l5414:	
  2654                           
  2655                           ;L210004 HC.c: 1066: }
  2656                           ;L210004 HC.c: 1068: if(!(--time_out)){
  2657  006E  30FF               	movlw	-1
  2658  006F  07E9               	addwf	_time_out,f	;volatile
  2659  0070  1C03               	skipc
  2660  0071  03EA               	decf	_time_out+1,f	;volatile
  2661  0072  086A               	movf	_time_out+1,w	;volatile
  2662  0073  0469               	iorwf	_time_out,w	;volatile
  2663  0074  1D03               	skipz
  2664  0075  289F               	goto	i1l5434
  2665                           
  2666                           ;L210004 HC.c: 1069: time_out = 200;
  2667  0076  30C8               	movlw	200
  2668  0077  00E9               	movwf	_time_out	;volatile
  2669  0078  01EA               	clrf	_time_out+1	;volatile
  2670                           
  2671                           ;L210004 HC.c: 1070: if(massage_timeout){
  2672  0079  082D               	movf	_massage_timeout+1,w	;volatile
  2673  007A  042C               	iorwf	_massage_timeout,w	;volatile
  2674  007B  1903               	skipnz
  2675  007C  288D               	goto	i1l5426
  2676                           
  2677                           ;L210004 HC.c: 1071: if(!(--massage_timeout)){
  2678  007D  30FF               	movlw	-1
  2679  007E  07AC               	addwf	_massage_timeout,f	;volatile
  2680  007F  1C03               	skipc
  2681  0080  03AD               	decf	_massage_timeout+1,f	;volatile
  2682  0081  082D               	movf	_massage_timeout+1,w	;volatile
  2683  0082  042C               	iorwf	_massage_timeout,w	;volatile
  2684  0083  1D03               	skipz
  2685  0084  288D               	goto	i1l5426
  2686                           
  2687                           ;L210004 HC.c: 1072: hc_led_off();
  2688  0085  3184  243E  3180   	fcall	i1_hc_led_off
  2689                           
  2690                           ;L210004 HC.c: 1073: pwr_on = 1;
  2691  0088  01EC               	clrf	_pwr_on	;volatile
  2692  0089  0AEC               	incf	_pwr_on,f	;volatile
  2693                           
  2694                           ;L210004 HC.c: 1074: mode_state = 1;
  2695  008A  3001               	movlw	1
  2696  008B  00E7               	movwf	_mode_state	;volatile
  2697  008C  01E8               	clrf	_mode_state+1	;volatile
  2698  008D                     i1l5426:	
  2699                           
  2700                           ;L210004 HC.c: 1075: }
  2701                           ;L210004 HC.c: 1076: }
  2702                           ;L210004 HC.c: 1077: if(heat_timeout){
  2703  008D  082B               	movf	_heat_timeout+1,w	;volatile
  2704  008E  042A               	iorwf	_heat_timeout,w	;volatile
  2705  008F  1903               	skipnz
  2706  0090  289F               	goto	i1l5434
  2707                           
  2708                           ;L210004 HC.c: 1078: if(!(--heat_timeout)){
  2709  0091  30FF               	movlw	-1
  2710  0092  07AA               	addwf	_heat_timeout,f	;volatile
  2711  0093  1C03               	skipc
  2712  0094  03AB               	decf	_heat_timeout+1,f	;volatile
  2713  0095  082B               	movf	_heat_timeout+1,w	;volatile
  2714  0096  042A               	iorwf	_heat_timeout,w	;volatile
  2715  0097  1D03               	skipz
  2716  0098  289F               	goto	i1l5434
  2717                           
  2718                           ;L210004 HC.c: 1079: LATA3 = 1;
  2719  0099  0022               	movlb	2	; select bank2
  2720  009A  158C               	bsf	12,3
  2721                           
  2722                           ;L210004 HC.c: 1080: heat_on = 1;
  2723  009B  0020               	movlb	0	; select bank0
  2724  009C  01EB               	clrf	_heat_on	;volatile
  2725  009D  0AEB               	incf	_heat_on,f	;volatile
  2726                           
  2727                           ;L210004 HC.c: 1081: heat_off = 0;
  2728  009E  01AE               	clrf	_heat_off	;volatile
  2729  009F                     i1l5434:	
  2730                           
  2731                           ;L210004 HC.c: 1082: }
  2732                           ;L210004 HC.c: 1083: }
  2733                           ;L210004 HC.c: 1084: }
  2734                           ;L210004 HC.c: 1085: }
  2735                           ;L210004 HC.c: 1086: TMR0IF = 0;
  2736  009F  110B               	bcf	11,2
  2737  00A0  0009               	retfie
  2738  00A1                     __end_of_isr:	
  2739                           
  2740                           	psect	text250
  2741  043E                     __ptext250:	
  2742 ;; =============== function _isr ends ============
  2743                           
  2744                           
  2745 ;; *************** function i1_hc_led_off *****************
  2746 ;; Defined at:
  2747 ;;		line 1105 in file "L210004 HC.c"
  2748 ;; Parameters:    Size  Location     Type
  2749 ;;		None
  2750 ;; Auto vars:     Size  Location     Type
  2751 ;;		None
  2752 ;; Return value:  Size  Location     Type
  2753 ;;		None               void
  2754 ;; Registers used:
  2755 ;;		status,2
  2756 ;; Tracked objects:
  2757 ;;		On entry : 1F/0
  2758 ;;		On exit  : 1F/0
  2759 ;;		Unchanged: FFFE0/0
  2760 ;; Data sizes:     COMMON   BANK0   BANK1   BANK2   BANK3   BANK4   BANK5   BANK6
  2761 ;;      Params:         0       0       0       0       0       0       0       0
  2762 ;;      Locals:         0       0       0       0       0       0       0       0
  2763 ;;      Temps:          0       0       0       0       0       0       0       0
  2764 ;;      Totals:         0       0       0       0       0       0       0       0
  2765 ;;Total ram usage:        0 bytes
  2766 ;; Hardware stack levels used:    1
  2767 ;; This function calls:
  2768 ;;		Nothing
  2769 ;; This function is called by:
  2770 ;;		_isr
  2771 ;; This function uses a non-reentrant model
  2772 ;;
  2773  043E                     i1_hc_led_off:	
  2774                           
  2775                           ;L210004 HC.c: 1106: LATD0 = 1;
  2776                           
  2777                           ; Regs used in i1_hc_led_off: [status,2]
  2778  043E  0022               	movlb	2	; select bank2
  2779  043F  140F               	bsf	15,0
  2780                           
  2781                           ;L210004 HC.c: 1111: z0_on = 1;
  2782  0440  01FA               	clrf	_z0_on	;volatile
  2783  0441  0AFA               	incf	_z0_on,f	;volatile
  2784                           
  2785                           ;L210004 HC.c: 1112: z0_off = 0;
  2786  0442  01FD               	clrf	_z0_off	;volatile
  2787                           
  2788                           ;L210004 HC.c: 1114: z1_on = 1;
  2789  0443  01FC               	clrf	_z1_on	;volatile
  2790  0444  0AFC               	incf	_z1_on,f	;volatile
  2791                           
  2792                           ;L210004 HC.c: 1115: z1_off = 0;
  2793  0445  01FB               	clrf	_z1_off	;volatile
  2794                           
  2795                           ;L210004 HC.c: 1117: z2_on = 1;
  2796  0446  0020               	movlb	0	; select bank0
  2797  0447  01C5               	clrf	_z2_on	;volatile
  2798  0448  0AC5               	incf	_z2_on,f	;volatile
  2799                           
  2800                           ;L210004 HC.c: 1118: z2_off = 0;
  2801  0449  01C4               	clrf	_z2_off	;volatile
  2802                           
  2803                           ;L210004 HC.c: 1120: z3_on = 1;
  2804  044A  01ED               	clrf	_z3_on	;volatile
  2805  044B  0AED               	incf	_z3_on,f	;volatile
  2806                           
  2807                           ;L210004 HC.c: 1121: z3_off = 0;
  2808  044C  01C7               	clrf	_z3_off	;volatile
  2809  044D  0008               	return
  2810  044E                     __end_ofi1_hc_led_off:	
  2811                           
  2812                           	psect	text251
  2813  0000                     __ptext251:	
  2814 ;; =============== function i1_hc_led_off ends ============
  2815                           
  2816  007E                     btemp	set	126	;btemp
  2817  007E                     wtemp0	set	126


HI-TECH Software PICC Macro Assembler V9.83 build 10920 
Symbol Table                                                                                   Thu Mar 18 10:21:30 2021

        connection_est@i 0072                      _GIE 005F                      _RB1 0069  
                    _RB2 006A                      _RA4 0064                      _RB3 006B  
                    _RA5 0065                      _RB4 006C                      _RD1 0079  
                    _RE0 0080              _pwr_btn_flg 003C                      _isr 0004  
                    wreg 0009              main@heat_de 0049   __end_of_connection_est 00E3  
                   l2111 03BF                     l2122 0000                     l2115 0000  
                   l2211 035E                     l2118 03E2                     l2150 0219  
                   l2160 0254                     l2280 0000                     l2291 0000  
                   l2277 0000                     l2286 0000                     l5300 0000  
                   l5302 0000                     l5500 0000                     l5270 03DA  
                   l5262 0000                     l5510 0000                     l5502 0000  
                   l5280 03FD                     l5272 0000                     l5600 0000  
                   l5520 0000                     l5512 0000                     l5504 0000  
                   l5266 0000                     l5290 0000                     l5450 0000  
                   l5602 0000                     l5530 015D                     l5522 0000  
                   l5514 0000                     l5506 0000                     l5276 0000  
                   l5292 0000                     l5284 0000                     l5452 0000  
                   l5612 01DF                     l5604 0000                     l5532 0169  
                   l5524 0000                     l5516 0000                     l5508 0000  
                   l5286 0000                     l5294 0000                     l5446 0000  
                   l5470 00C0                     l5710 0000                     l5614 0000  
                   l5550 0000                     l5542 0170                     l5534 0000  
                   l5526 0000                     l5518 0000                     l5288 0000  
                   l5296 0000                     l5456 0000                     l5448 00E5  
                   l5472 0000                     l5464 0000                     l5800 0000  
                   l5712 0000                     l5720 0272                     l5640 0000  
                   l5632 0000                     l5616 0000                     l5560 018B  
                   l5552 0000                     l5544 0000                     l5536 0000  
                   l5480 0000                     l5298 0000                     l5458 00F3  
                   l5474 0000                     l5810 0000                     l5802 0000  
                   l5730 0000                     l5722 0000                     l5714 0000  
                   l5706 0000                     l5642 0214                     l5626 01F4  
                   l5618 0000                     l5562 0000                     l5546 0000  
                   l5490 0000                     l5482 0000                     l5476 0000  
                   l5900 032E                     l5812 0000                     l5804 0000  
                   l5740 0000                     l5732 0000                     l5724 0000  
                   l5716 0000                     l5580 0000                     l5564 0000  
                   l5548 0000                     l5492 0000                     l5484 0000  
                   l5478 0000                     l5902 032F                     l5910 0336  
                   l5830 0000                     l5822 02E0                     l5814 0000  
                   l5806 02CF                     l5734 0000                     l5726 0000  
                   l5718 0000                     l5742 028A                     l5670 0000  
                   l5662 0000                     l5646 0000                     l5638 0000  
                   l5574 01A0                     l5566 0000                     l5494 0000  
                   l5486 0000                     l5912 0000                     l5920 033D  
                   l5840 0000                     l5824 02E1                     l5832 02E8  
                   l5808 0000                     l5816 02D6                     l5760 0299  
                   l5744 0000                     l5736 0000                     l5728 0000  
                   l5752 028E                     l5680 0000                     l5664 0000  
                   l5672 0240                     l5648 021E                     l5496 0000  
                   l5488 0000                     l5914 0000                     l5906 0000  
                   l5850 02FB                     l5834 0000                     l5842 02EF  
                   l5818 0000                     l5770 0000                     l5754 0000  
                   l5738 0000                     l5682 0000                     l5674 0000  
                   l5666 0000                     l5658 0000                     l5594 01C4  
                   l5586 0000                     l5498 0000                     l5940 0000  
                   l5924 034E                     l5916 0000                     l5908 0000  
                   l5860 0000                     l5844 0000                     l5836 0000  
                   l5828 0000                     l5780 0000                     l5772 0000  
                   l5764 0000                     l5684 0000                     l5676 0000  
                   l5668 0000                     l5596 0000                     l5588 01C2  
                   ?_isr 0070                     l5950 0367                     l5942 0000  
                   l5926 0000                     l5918 0000                     l5870 0000  
                   l5862 0000                     l5854 0000                     l5838 0000  
                   l5790 02C0                     l5782 0000                     l5766 0000  
                   l5758 0298                     l5774 02A9                     l5678 0000  
                   l5694 0250                     l5598 0000                     l5952 0000  
                   l5944 0363                     l5880 0000                     l5864 0000  
                   l5856 0000                     l5848 02FA                     l5792 02C1  
                   l5776 0000                     l5768 0000                     l5784 02B6  
                   l5696 0000                     l5970 0000                     l5954 0000  
                   l5890 0000                     l5882 0000                     l5874 0314  
                   l5866 0000                     l5858 0302                     l5786 0000  
                   l5778 0000                     l5980 0396                     l5972 0000  
                   l5956 0000                     l5892 0000                     l5876 0315  
                   l5884 031C                     l5868 0309                     l5796 0000  
                   l5990 0000                     l5966 0381                     l5958 0000  
                   l5886 0000                     l5894 0323                     l5798 0000  
                   l5992 03B4                     l5984 0000                     l5968 0000  
                   l5896 0000                     l5888 0000                     _CREN 0CEC  
                   _FERR 0CEA                     u1243 03D8                     _LATA 010C  
                   _LATB 010D                     u1263 03FB                     _LATC 010E  
                   _LATD 010F                     _LATE 0110                     u2335 0347  
                   u2507 00D0                     _PIE1 0091                     u1845 00E0  
                   u2477 0102                     u2487 0153                     u2497 00C6  
                   _RCIF 008D                     _OERR 0CE9                     _SPEN 0CEF  
                   _TXIF 008C                     _WPUB 020D    __size_ofi1_hc_led_off 0010  
                   _main 00F7                     fsr0h 0005                     fsr1h 0007  
                   fsr0l 0004                     indf0 0000                     indf1 0001  
                   fsr1l 0006                     btemp 007E                     start 00A1  
                  ??_isr 0070                    ?_main 0070                    _LATA3 0863  
                  _LATD0 0878                    _RCREG 0199                    _RCSTA 019D  
                  _SPBRG 019B                    _TRISA 008C                    _TRISB 008D  
                  _TRISC 008E                    _TRISD 008F                    _TRISE 0090  
                  _TXREG 019A                    _TXSTA 019E             i1_hc_led_off 043E  
        syn_synack_ack@c 0075                    _z0_on 007A                    _z1_on 007C  
                  _z2_on 0045                    _z3_on 006D                    _getch 03DE  
        ?_connection_est 0070                    _putch 03BA                    main@c 004D  
                  main@i 0055                    main@x 0053             main@power_de 004B  
                  wtemp0 007E         ??_syn_synack_ack 0075             __end_of_main 03BA  
                 ??_main 0077                   ?_getch 0070          _massage_timeout 002C  
                 _ANSELA 018C                   ?_putch 0070                   _ANSELB 018D  
                 _ANSELD 018F                   _ANSELE 0190                   i1l2280 0000  
                 i1l2274 0000                   i1l5304 0000                   i1l5322 0018  
                 i1l5412 006D                   i1l5340 0029                   i1l5324 0019  
                 i1l5422 0000                   i1l5414 006E                   i1l5342 002A  
                 i1l5440 0000                   i1l5432 0000                   i1l5424 0000  
                 i1l5360 003B                   i1l5442 0000                   i1l5426 008D  
                 i1l5434 009F                   i1l5444 0000                   i1l5436 0000  
                 i1l5438 0000                   i1l5358 003A                   i1l5376 004B  
                 i1l5394 005C                   i1l5378 004C                   i1l5396 005D  
                 _OSCCON 0099                   _TMR0IE 005D                   _TMR0IF 005A  
                 _SPBRGH 019C                   _SPBRGL 019B                   _WDTCON 0097  
                 _TRISC6 0476                   _TRISC7 0477                   _SWDTEN 04B8  
                 _z0_off 007D                   _z1_off 007B                   _z2_off 0044  
                 _z3_off 0047                   _pwr_on 006C                   clrloop 044F  
           __pdataCOMMON 007A           __pcstackCOMMON 0070             __pidataBANK0 0000  
          __end_of_getch 0400            __end_of_putch 03DE       __size_of_hc_led_on 0010  
                ??_getch 0070                  ??_putch 0070               __pbssBANK0 0020  
             _hc_led_off 0400               __pmaintext 00F7               __pintentry 0004  
                _BAUDCON 019F         ??_connection_est 0070        __end_of_hc_led_on 0420  
             _hr_cl_sent 0032               _hr_op_sent 0033                  _z0_sent 0042  
                _z1_sent 0043                  _z2_sent 0046             _heat_timeout 002A  
                _z3_sent 0048                  _heat_on 006B                  _last_tx 0020  
           __size_of_isr 009D               _mode_state 0067                  _rx_char 0025  
                _pwr_flg 003D                  _pwr_off 003E                  _tx_flag 0041  
   end_of_initialization 00BC               _pr_cl_sent 003A               _lum_btn_cl 0034  
             _lum_btn_op 0035              ?_hc_led_off 0070               _pr_op_sent 003B  
             getch@count 0070               main@i_3350 0061               main@i_3351 0059  
             main@i_3352 005B               main@i_3353 0063               main@i_3356 005D  
             main@i_3357 005F               main@i_3349 0057               main@i_3358 0065  
             main@safety 004F            __pidataCOMMON 0000  __size_of_syn_synack_ack 0014  
    start_initialization 00A4      __size_of_hc_led_off 0010              __end_of_isr 00A1  
            __pdataBANK0 0067            ?i1_hc_led_off 0070              __pbssCOMMON 007D  
          __pcstackBANK0 0049                _hc_led_on 0410                __ptext250 043E  
              __ptext251 0000                __ptext243 00BE                __ptext244 00E3  
              __ptext245 0400                __ptext246 0410                __ptext247 03DE  
              __ptext248 03BA                _heat_sent 002F          main@connect_ack 0051  
         ??i1_hc_led_off 0070                _hr_btn_cl 0030                _hr_btn_op 0031  
         __size_of_getch 0022           __size_of_putch 0024             ??_hc_led_off 0070  
              _pr_btn_cl 0038                _pr_btn_op 0039               ?_hc_led_on 0070  
         _syn_synack_ack 00E3                _tx_buffer 0040       __end_of_hc_led_off 0410  
__size_of_connection_est 0025               putch@count 0071       syn_synack_ack@echo 0076  
 __end_of_syn_synack_ack 00F7                 _heat_off 002E            __size_of_main 02C3  
   __end_ofi1_hc_led_off 044E                 clear_ram 044E              ??_hc_led_on 0070  
               _time_out 0069                 _pwr_sent 003F                 main@echo 0052  
        ?_syn_synack_ack 0070                putch@byte 0070                 intlevel1 0000  
            _lum_cl_sent 0036              _lum_op_sent 0037               _OPTION_REG 0095  
         _connection_est 00BE  
