

HI-TECH Software PIC PRO Macro Assembler V9.83 build 10920 
                                                                                               Thu Mar 18 10:01:18 2021

HI-TECH Software Omniscient Code Generator (PRO mode) build 10920
     1                           	processor	16F1937
     2                           	opt	pw 120
     3                           	opt	pm
     4                           	psect	config,global,class=CONFIG,delta=2
     5                           	psect	idataBANK0,global,class=CODE,delta=2
     6                           	psect	idataBANK1,global,class=CODE,delta=2
     7                           	psect	cinit,global,class=CODE,delta=2
     8                           	psect	bssCOMMON,global,class=COMMON,space=1,delta=1
     9                           	psect	bssBANK0,global,class=BANK0,space=1,delta=1
    10                           	psect	dataBANK0,global,class=BANK0,space=1,delta=1
    11                           	psect	bssBANK1,global,class=BANK1,space=1,delta=1
    12                           	psect	dataBANK1,global,class=BANK1,space=1,delta=1
    13                           	psect	clrtext,global,class=CODE,delta=2
    14                           	psect	cstackCOMMON,global,class=COMMON,space=1,delta=1
    15                           	psect	cstackBANK0,global,class=BANK0,space=1,delta=1
    16                           	psect	intentry,global,class=CODE,delta=2
    17                           	psect	text262,local,class=CODE,delta=2
    18                           	psect	text263,local,class=CODE,delta=2
    19                           	psect	pa_nodes,global,class=CODE,delta=2
    20                           	dabs	1,0x7E,2
    21  000A                     	;#
    22                           
    23                           	psect	config
    24  8007  F92C               	dw	63788	;#
    25  8008  DDFF               	dw	56831	;#
    26                           
    27                           	psect	idataBANK0
    28  0000                     __pidataBANK0:	
    29                           
    30                           	psect	idataBANK1
    31  0000                     __pidataBANK1:	
    32  005F                     _GIE	set	95
    33  0064                     _RA4	set	100
    34  0065                     _RA5	set	101
    35  0066                     _RA6	set	102
    36  0069                     _RB1	set	105
    37  006A                     _RB2	set	106
    38  006B                     _RB3	set	107
    39  006C                     _RB4	set	108
    40  0073                     _RC3	set	115
    41  0075                     _RC5	set	117
    42  008D                     _RCIF	set	141
    43  0079                     _RD1	set	121
    44  007B                     _RD3	set	123
    45  007D                     _RD5	set	125
    46  0080                     _RE0	set	128
    47  005D                     _TMR0IE	set	93
    48  005A                     _TMR0IF	set	90
    49  008C                     _TXIF	set	140
    50  0095                     _OPTION_REG	set	149
    51  0099                     _OSCCON	set	153
    52  0091                     _PIE1	set	145
    53  008C                     _TRISA	set	140
    54  008D                     _TRISB	set	141
    55  008E                     _TRISC	set	142
    56  008F                     _TRISD	set	143
    57  0090                     _TRISE	set	144
    58  0097                     _WDTCON	set	151
    59  04B8                     _SWDTEN	set	1208
    60  0476                     _TRISC6	set	1142
    61  0477                     _TRISC7	set	1143
    62  010C                     _LATA	set	268
    63  010D                     _LATB	set	269
    64  010E                     _LATC	set	270
    65  010F                     _LATD	set	271
    66  0110                     _LATE	set	272
    67  0863                     _LATA3	set	2147
    68  0867                     _LATA7	set	2151
    69  0870                     _LATC0	set	2160
    70  0871                     _LATC1	set	2161
    71  0872                     _LATC2	set	2162
    72  0874                     _LATC4	set	2164
    73  0878                     _LATD0	set	2168
    74  087A                     _LATD2	set	2170
    75  087C                     _LATD4	set	2172
    76  018C                     _ANSELA	set	396
    77  018D                     _ANSELB	set	397
    78  018F                     _ANSELD	set	399
    79  0190                     _ANSELE	set	400
    80  019F                     _BAUDCON	set	415
    81  0199                     _RCREG	set	409
    82  019D                     _RCSTA	set	413
    83  019B                     _SPBRG	set	411
    84  019C                     _SPBRGH	set	412
    85  019B                     _SPBRGL	set	411
    86  019A                     _TXREG	set	410
    87  019E                     _TXSTA	set	414
    88  0CEC                     _CREN	set	3308
    89  0CEA                     _FERR	set	3306
    90  0CE9                     _OERR	set	3305
    91  0CEF                     _SPEN	set	3311
    92  020D                     _WPUB	set	525
    93                           
    94                           	psect	cinit
    95  00CF                     start_initialization:	
    96  00CF  3048               	movlw	low __pbssBANK0
    97                           
    98                           ; Clear objects allocated to COMMON
    99  00D0  01FA               	clrf	__pbssCOMMON& (0+127)
   100  00D1  01FB               	clrf	(__pbssCOMMON+1)& (0+127)
   101  00D2  01FC               	clrf	(__pbssCOMMON+2)& (0+127)
   102  00D3  01FD               	clrf	(__pbssCOMMON+3)& (0+127)
   103                           
   104                           ; Clear objects allocated to BANK0
   105  00D4  0084               	movwf	4
   106  00D5  3000               	movlw	high __pbssBANK0
   107  00D6  0085               	movwf	5
   108  00D7  3020               	movlw	32
   109  00D8  3186  2614  3180   	fcall	clear_ram
   110                           
   111                           ; Clear objects allocated to BANK1
   112  00DB  0021               	movlb	1	; select bank1
   113  00DC  01A0               	clrf	__pbssBANK1& (0+127)
   114  00DD  01A1               	clrf	(__pbssBANK1+1)& (0+127)
   115  00DE  01A2               	clrf	(__pbssBANK1+2)& (0+127)
   116  00DF  01A3               	clrf	(__pbssBANK1+3)& (0+127)
   117  00E0  01A4               	clrf	(__pbssBANK1+4)& (0+127)
   118  00E1  01A5               	clrf	(__pbssBANK1+5)& (0+127)
   119                           
   120                           ; Initialize objects allocated to BANK0
   121  00E2  0020               	movlb	0	; select bank0
   122                           
   123                           ;initializer for _mode_state
   124  00E3  3001               	movlw	1
   125  00E4  00E8               	movwf	__pdataBANK0& (0+127)
   126  00E5  3000               	movlw	0
   127  00E6  00E9               	movwf	(__pdataBANK0+1)& (0+127)
   128                           
   129                           ;initializer for _heat_on
   130  00E7  3001               	movlw	1
   131  00E8  00EA               	movwf	(__pdataBANK0+2)& (0+127)
   132                           
   133                           ;initializer for _pwr_on
   134  00E9  00EB               	movwf	(__pdataBANK0+3)& (0+127)
   135                           
   136                           ;initializer for _z0_on
   137  00EA  00EC               	movwf	(__pdataBANK0+4)& (0+127)
   138                           
   139                           ;initializer for _z1_off
   140  00EB  00ED               	movwf	(__pdataBANK0+5)& (0+127)
   141                           
   142                           ;initializer for _z1_on
   143  00EC  00EE               	movwf	(__pdataBANK0+6)& (0+127)
   144                           
   145                           ;initializer for _z3_on
   146  00ED  00EF               	movwf	(__pdataBANK0+7)& (0+127)
   147                           
   148                           ; Initialize objects allocated to BANK1
   149  00EE  0021               	movlb	1	; select bank1
   150                           
   151                           ;initializer for _time_out
   152  00EF  30C8               	movlw	200
   153  00F0  00A6               	movwf	__pdataBANK1& (0+127)
   154  00F1  3000               	movlw	0
   155  00F2  00A7               	movwf	(__pdataBANK1+1)& (0+127)
   156  00F3                     end_of_initialization:	
   157                           ;End of C runtime variable initialization code
   158                           
   159  00F3  0020               	movlb	0
   160  00F4  292E               	ljmp	_main	;jump to C main() function
   161  00F5                     __ptext255:	
   162 ;; =============== function _main ends ============
   163                           
   164                           
   165 ;; *************** function _connection_est *****************
   166 ;; Defined at:
   167 ;;		line 1147 in file "L210004 HC.c"
   168 ;; Parameters:    Size  Location     Type
   169 ;;		None
   170 ;; Auto vars:     Size  Location     Type
   171 ;;  i               2    2[COMMON] int 
   172 ;; Return value:  Size  Location     Type
   173 ;;		None               void
   174 ;; Registers used:
   175 ;;		wreg, status,2, status,0, btemp+1, pclath, cstack
   176 ;; Tracked objects:
   177 ;;		On entry : 1F/0
   178 ;;		On exit  : 0/0
   179 ;;		Unchanged: 0/0
   180 ;; Data sizes:     COMMON   BANK0   BANK1   BANK2   BANK3   BANK4   BANK5   BANK6
   181 ;;      Params:         0       0       0       0       0       0       0       0
   182 ;;      Locals:         2       0       0       0       0       0       0       0
   183 ;;      Temps:          2       0       0       0       0       0       0       0
   184 ;;      Totals:         4       0       0       0       0       0       0       0
   185 ;;Total ram usage:        4 bytes
   186 ;; Hardware stack levels used:    1
   187 ;; Hardware stack levels required when called:    3
   188 ;; This function calls:
   189 ;;		_hc_led_on
   190 ;;		_hc_led_off
   191 ;; This function is called by:
   192 ;;		_main
   193 ;; This function uses a non-reentrant model
   194 ;;
   195  00F5                     _connection_est:	
   196                           
   197                           ;L210004 HC.c: 1148: for(int i = 0; i < 3; ++i){
   198                           
   199                           ; Regs used in _connection_est: [wreg+status,2+status,0+btemp+1+pclath+cstack]
   200  00F5  01F2               	clrf	connection_est@i
   201  00F6  01F3               	clrf	connection_est@i+1
   202  00F7                     l6022:	
   203                           
   204                           ;L210004 HC.c: 1149: hc_led_on();
   205  00F7  25B0  3180         	fcall	_hc_led_on
   206                           
   207                           ;L210004 HC.c: 1150: _delay((unsigned long)((150)*(4000000/4000.0)));
   208  00F9  30C3               	movlw	195
   209  00FA  00F1               	movwf	??_connection_est+1
   210  00FB  30CD               	movlw	205
   211  00FC  00F0               	movwf	??_connection_est
   212  00FD                     u3817:	
   213  00FD  0BF0               	decfsz	??_connection_est,f
   214  00FE  28FD               	goto	u3817
   215  00FF  0BF1               	decfsz	??_connection_est+1,f
   216  0100  28FD               	goto	u3817
   217                           
   218                           ;L210004 HC.c: 1151: hc_led_off();
   219  0101  2571  3180         	fcall	_hc_led_off
   220                           
   221                           ;L210004 HC.c: 1152: _delay((unsigned long)((150)*(4000000/4000.0)));
   222  0103  30C3               	movlw	195
   223  0104  00F1               	movwf	??_connection_est+1
   224  0105  30CD               	movlw	205
   225  0106  00F0               	movwf	??_connection_est
   226  0107                     u3827:	
   227  0107  0BF0               	decfsz	??_connection_est,f
   228  0108  2907               	goto	u3827
   229  0109  0BF1               	decfsz	??_connection_est+1,f
   230  010A  2907               	goto	u3827
   231  010B  0AF2               	incf	connection_est@i,f
   232  010C  1903               	skipnz
   233  010D  0AF3               	incf	connection_est@i+1,f
   234  010E  0873               	movf	connection_est@i+1,w
   235  010F  3A80               	xorlw	128
   236  0110  00FF               	movwf	127
   237  0111  3080               	movlw	128
   238  0112  027F               	subwf	127,w
   239  0113  1D03               	skipz
   240  0114  2917               	goto	u2805
   241  0115  3003               	movlw	3
   242  0116  0272               	subwf	connection_est@i,w
   243  0117                     u2805:	
   244  0117  1803               	btfsc	3,0
   245  0118  0008               	return
   246  0119  28F7               	goto	l6022
   247  011A                     __end_of_connection_est:	
   248  011A                     __ptext256:	
   249 ;; =============== function _connection_est ends ============
   250                           
   251                           
   252 ;; *************** function _syn_synack_ack *****************
   253 ;; Defined at:
   254 ;;		line 1130 in file "L210004 HC.c"
   255 ;; Parameters:    Size  Location     Type
   256 ;;		None
   257 ;; Auto vars:     Size  Location     Type
   258 ;;  c               1    5[COMMON] unsigned char 
   259 ;;  echo            1    6[COMMON] unsigned char 
   260 ;; Return value:  Size  Location     Type
   261 ;;                  1    wreg      unsigned char 
   262 ;; Registers used:
   263 ;;		wreg, status,2, status,0, btemp+1, pclath, cstack
   264 ;; Tracked objects:
   265 ;;		On entry : 1F/0
   266 ;;		On exit  : 0/0
   267 ;;		Unchanged: FFE00/0
   268 ;; Data sizes:     COMMON   BANK0   BANK1   BANK2   BANK3   BANK4   BANK5   BANK6
   269 ;;      Params:         0       0       0       0       0       0       0       0
   270 ;;      Locals:         2       0       0       0       0       0       0       0
   271 ;;      Temps:          0       0       0       0       0       0       0       0
   272 ;;      Totals:         2       0       0       0       0       0       0       0
   273 ;;Total ram usage:        2 bytes
   274 ;; Hardware stack levels used:    1
   275 ;; Hardware stack levels required when called:    3
   276 ;; This function calls:
   277 ;;		_putch
   278 ;;		_getch
   279 ;; This function is called by:
   280 ;;		_main
   281 ;; This function uses a non-reentrant model
   282 ;;
   283  011A                     _syn_synack_ack:	
   284                           
   285                           ;L210004 HC.c: 1131: bool echo = 1;
   286                           
   287                           ; Regs used in _syn_synack_ack: [wreg+status,2+status,0+btemp+1+pclath+cstack]
   288  011A  01F6               	clrf	syn_synack_ack@echo
   289  011B  0AF6               	incf	syn_synack_ack@echo,f
   290  011C                     l6000:	
   291                           
   292                           ;L210004 HC.c: 1133: putch('?');
   293  011C  303F               	movlw	63
   294  011D  254D  3180         	fcall	_putch
   295                           
   296                           ;L210004 HC.c: 1134: char c = getch();
   297  011F  258E  3180         	fcall	_getch
   298  0121  00F5               	movwf	syn_synack_ack@c
   299  0122  0064               	clrwdt	;#
   300                           
   301                           ;L210004 HC.c: 1136: if(c == '!'){
   302  0123  3A21               	xorlw	33
   303  0124  1D03               	skipz
   304  0125  292A               	goto	l6010
   305                           
   306                           ;L210004 HC.c: 1137: putch('~');
   307  0126  307E               	movlw	126
   308  0127  254D  3180         	fcall	_putch
   309                           
   310                           ;L210004 HC.c: 1138: echo = 0;
   311  0129  01F6               	clrf	syn_synack_ack@echo
   312  012A                     l6010:	
   313                           
   314                           ;L210004 HC.c: 1139: }
   315                           ;L210004 HC.c: 1140: }while(echo);
   316  012A  08F6               	movf	syn_synack_ack@echo,f
   317  012B  1903               	btfsc	3,2
   318                           
   319                           ;L210004 HC.c: 1142: return 1;
   320  012C  3401               	retlw	1
   321  012D  291C               	goto	l6000
   322  012E                     __end_of_syn_synack_ack:	
   323  012E                     __pmaintext:	
   324 ;;Data sizes: Strings 0, constant 0, data 10, bss 42, persistent 0 stack 0
   325 ;;Auto spaces:   Size  Autos    Used
   326 ;; COMMON          14     10      14
   327 ;; BANK0           80     40      80
   328 ;; BANK1           80      0       8
   329 ;; BANK2           80      0       0
   330 ;; BANK3           80      0       0
   331 ;; BANK4           80      0       0
   332 ;; BANK5           80      0       0
   333 ;; BANK6           16      0       0
   334 ;;
   335 ;; Pointer list with targets:
   336 ;;
   337 ;; Critical Paths under _main in COMMON
   338 ;;
   339 ;;   _main->_syn_synack_ack
   340 ;;   _syn_synack_ack->_putch
   341 ;;
   342 ;; Critical Paths under _isr in COMMON
   343 ;;
   344 ;;   None.
   345 ;;
   346 ;; Critical Paths under _main in BANK0
   347 ;;
   348 ;;   None.
   349 ;;
   350 ;; Critical Paths under _isr in BANK0
   351 ;;
   352 ;;   None.
   353 ;;
   354 ;; Critical Paths under _main in BANK1
   355 ;;
   356 ;;   None.
   357 ;;
   358 ;; Critical Paths under _isr in BANK1
   359 ;;
   360 ;;   None.
   361 ;;
   362 ;; Critical Paths under _main in BANK2
   363 ;;
   364 ;;   None.
   365 ;;
   366 ;; Critical Paths under _isr in BANK2
   367 ;;
   368 ;;   None.
   369 ;;
   370 ;; Critical Paths under _main in BANK3
   371 ;;
   372 ;;   None.
   373 ;;
   374 ;; Critical Paths under _isr in BANK3
   375 ;;
   376 ;;   None.
   377 ;;
   378 ;; Critical Paths under _main in BANK4
   379 ;;
   380 ;;   None.
   381 ;;
   382 ;; Critical Paths under _isr in BANK4
   383 ;;
   384 ;;   None.
   385 ;;
   386 ;; Critical Paths under _main in BANK5
   387 ;;
   388 ;;   None.
   389 ;;
   390 ;; Critical Paths under _isr in BANK5
   391 ;;
   392 ;;   None.
   393 ;;
   394 ;; Critical Paths under _main in BANK6
   395 ;;
   396 ;;   None.
   397 ;;
   398 ;; Critical Paths under _isr in BANK6
   399 ;;
   400 ;;   None.
   401 ;;
   402 ;;Main: autosize = 0, tempsize = 3, incstack = 0, save=0
   403 ;;
   404 ;;
   405 ;;Call Graph Tables:
   406 ;;
   407 ;; ---------------------------------------------------------------------------------
   408 ;; (Depth) Function   	        Calls       Base Space   Used Autos Params    Refs
   409 ;; ---------------------------------------------------------------------------------
   410 ;; (0) _main                                                43    43      0    1225
   411 ;;                                              7 COMMON     3     3      0
   412 ;;                                              0 BANK0     40    40      0
   413 ;;                     _syn_synack_ack
   414 ;;                     _connection_est
   415 ;;                              _putch
   416 ;;                              _getch
   417 ;;                          _hc_led_on
   418 ;;                         _hc_led_off
   419 ;; ---------------------------------------------------------------------------------
   420 ;; (1) _connection_est                                       4     4      0      46
   421 ;;                                              0 COMMON     4     4      0
   422 ;;                          _hc_led_on
   423 ;;                         _hc_led_off
   424 ;; ---------------------------------------------------------------------------------
   425 ;; (1) _syn_synack_ack                                       2     2      0     117
   426 ;;                                              5 COMMON     2     2      0
   427 ;;                              _putch
   428 ;;                              _getch
   429 ;; ---------------------------------------------------------------------------------
   430 ;; (1) _hc_led_off                                           0     0      0       0
   431 ;; ---------------------------------------------------------------------------------
   432 ;; (1) _hc_led_on                                            0     0      0       0
   433 ;; ---------------------------------------------------------------------------------
   434 ;; (1) _getch                                                4     4      0      24
   435 ;;                                              0 COMMON     4     4      0
   436 ;; ---------------------------------------------------------------------------------
   437 ;; (1) _putch                                                5     5      0      46
   438 ;;                                              0 COMMON     5     5      0
   439 ;; ---------------------------------------------------------------------------------
   440 ;; Estimated maximum stack depth 1
   441 ;; ---------------------------------------------------------------------------------
   442 ;; (Depth) Function   	        Calls       Base Space   Used Autos Params    Refs
   443 ;; ---------------------------------------------------------------------------------
   444 ;; (3) _isr                                                  0     0      0       0
   445 ;;                       i1_hc_led_off
   446 ;; ---------------------------------------------------------------------------------
   447 ;; (4) i1_hc_led_off                                         0     0      0       0
   448 ;; ---------------------------------------------------------------------------------
   449 ;; Estimated maximum stack depth 4
   450 ;; ---------------------------------------------------------------------------------
   451 ;; Call Graph Graphs:
   452 ;; _main (ROOT)
   453 ;;   _syn_synack_ack
   454 ;;     _putch
   455 ;;     _getch
   456 ;;   _connection_est
   457 ;;     _hc_led_on
   458 ;;     _hc_led_off
   459 ;;   _putch
   460 ;;   _getch
   461 ;;   _hc_led_on
   462 ;;   _hc_led_off
   463 ;;
   464 ;; _isr (ROOT)
   465 ;;   i1_hc_led_off
   466 ;;
   467 ;; Address spaces:
   468 ;;Name               Size   Autos  Total    Cost      Usage
   469 ;;BIGRAM             1F0      0       0       0        0.0%
   470 ;;EEDATA             100      0       0       0        0.0%
   471 ;;NULL                 0      0       0       0        0.0%
   472 ;;CODE                 0      0       0       0        0.0%
   473 ;;BITCOMMON            E      0       0       1        0.0%
   474 ;;BITSFR0              0      0       0       1        0.0%
   475 ;;SFR0                 0      0       0       1        0.0%
   476 ;;COMMON               E      A       E       2      100.0%
   477 ;;BITSFR1              0      0       0       2        0.0%
   478 ;;SFR1                 0      0       0       2        0.0%
   479 ;;BITSFR2              0      0       0       3        0.0%
   480 ;;SFR2                 0      0       0       3        0.0%
   481 ;;STACK                0      0       6       3        0.0%
   482 ;;BITSFR3              0      0       0       4        0.0%
   483 ;;SFR3                 0      0       0       4        0.0%
   484 ;;ABS                  0      0      66       4        0.0%
   485 ;;BITBANK0            50      0       0       5        0.0%
   486 ;;BITSFR4              0      0       0       5        0.0%
   487 ;;SFR4                 0      0       0       5        0.0%
   488 ;;BANK0               50     28      50       6      100.0%
   489 ;;BITSFR5              0      0       0       6        0.0%
   490 ;;SFR5                 0      0       0       6        0.0%
   491 ;;BITBANK1            50      0       0       7        0.0%
   492 ;;BITSFR6              0      0       0       7        0.0%
   493 ;;SFR6                 0      0       0       7        0.0%
   494 ;;BANK1               50      0       8       8       10.0%
   495 ;;BITSFR7              0      0       0       8        0.0%
   496 ;;SFR7                 0      0       0       8        0.0%
   497 ;;BITBANK2            50      0       0       9        0.0%
   498 ;;BITSFR8              0      0       0       9        0.0%
   499 ;;SFR8                 0      0       0       9        0.0%
   500 ;;BANK2               50      0       0      10        0.0%
   501 ;;BITSFR9              0      0       0      10        0.0%
   502 ;;SFR9                 0      0       0      10        0.0%
   503 ;;BITBANK3            50      0       0      11        0.0%
   504 ;;BITSFR10             0      0       0      11        0.0%
   505 ;;SFR10                0      0       0      11        0.0%
   506 ;;BANK3               50      0       0      12        0.0%
   507 ;;BITSFR11             0      0       0      12        0.0%
   508 ;;SFR11                0      0       0      12        0.0%
   509 ;;BITBANK4            50      0       0      13        0.0%
   510 ;;BITSFR12             0      0       0      13        0.0%
   511 ;;SFR12                0      0       0      13        0.0%
   512 ;;BANK4               50      0       0      14        0.0%
   513 ;;BITSFR13             0      0       0      14        0.0%
   514 ;;SFR13                0      0       0      14        0.0%
   515 ;;BITBANK5            50      0       0      15        0.0%
   516 ;;BITSFR14             0      0       0      15        0.0%
   517 ;;SFR14                0      0       0      15        0.0%
   518 ;;BANK5               50      0       0      16        0.0%
   519 ;;BITSFR15             0      0       0      16        0.0%
   520 ;;SFR15                0      0       0      16        0.0%
   521 ;;BITBANK6            10      0       0      17        0.0%
   522 ;;BITSFR16             0      0       0      17        0.0%
   523 ;;SFR16                0      0       0      17        0.0%
   524 ;;BANK6               10      0       0      18        0.0%
   525 ;;BITSFR17             0      0       0      18        0.0%
   526 ;;SFR17                0      0       0      18        0.0%
   527 ;;BITSFR18             0      0       0      19        0.0%
   528 ;;SFR18                0      0       0      19        0.0%
   529 ;;DATA                 0      0      6C      19        0.0%
   530 ;;BITSFR19             0      0       0      20        0.0%
   531 ;;SFR19                0      0       0      20        0.0%
   532 ;;BITSFR20             0      0       0      21        0.0%
   533 ;;SFR20                0      0       0      21        0.0%
   534 ;;BITSFR21             0      0       0      22        0.0%
   535 ;;SFR21                0      0       0      22        0.0%
   536 ;;BITSFR22             0      0       0      23        0.0%
   537 ;;SFR22                0      0       0      23        0.0%
   538 ;;BITSFR23             0      0       0      24        0.0%
   539 ;;SFR23                0      0       0      24        0.0%
   540 ;;BITSFR24             0      0       0      25        0.0%
   541 ;;SFR24                0      0       0      25        0.0%
   542 ;;BITSFR25             0      0       0      26        0.0%
   543 ;;SFR25                0      0       0      26        0.0%
   544 ;;BITSFR26             0      0       0      27        0.0%
   545 ;;SFR26                0      0       0      27        0.0%
   546 ;;BITSFR27             0      0       0      28        0.0%
   547 ;;SFR27                0      0       0      28        0.0%
   548 ;;BITSFR28             0      0       0      29        0.0%
   549 ;;SFR28                0      0       0      29        0.0%
   550 ;;BITSFR29             0      0       0      30        0.0%
   551 ;;SFR29                0      0       0      30        0.0%
   552 ;;BITSFR30             0      0       0      31        0.0%
   553 ;;SFR30                0      0       0      31        0.0%
   554 ;;BITSFR31             0      0       0      32        0.0%
   555 ;;SFR31                0      0       0      32        0.0%
   556                           
   557                           
   558 ;; *************** function _main *****************
   559 ;; Defined at:
   560 ;;		line 258 in file "L210004 HC.c"
   561 ;; Parameters:    Size  Location     Type
   562 ;;		None
   563 ;; Auto vars:     Size  Location     Type
   564 ;;  i               2   38[BANK0 ] unsigned int 
   565 ;;  i               2   32[BANK0 ] unsigned int 
   566 ;;  i               2   30[BANK0 ] unsigned int 
   567 ;;  c               2   14[BANK0 ] int 
   568 ;;  echo            1   19[BANK0 ] unsigned char 
   569 ;;  i               2   36[BANK0 ] unsigned int 
   570 ;;  i               2   28[BANK0 ] unsigned int 
   571 ;;  i               2   26[BANK0 ] unsigned int 
   572 ;;  i               2   34[BANK0 ] unsigned int 
   573 ;;  i               2   24[BANK0 ] unsigned int 
   574 ;;  i               2   22[BANK0 ] unsigned int 
   575 ;;  x               2   20[BANK0 ] int 
   576 ;;  safety          2   16[BANK0 ] int 
   577 ;;  power_de        2   12[BANK0 ] int 
   578 ;;  mode_de         2   10[BANK0 ] int 
   579 ;;  heat_de         2    8[BANK0 ] int 
   580 ;;  z3_de           2    6[BANK0 ] int 
   581 ;;  z2_de           2    4[BANK0 ] int 
   582 ;;  z1_de           2    2[BANK0 ] int 
   583 ;;  z0_de           2    0[BANK0 ] int 
   584 ;;  connect_ack     1   18[BANK0 ] unsigned char 
   585 ;; Return value:  Size  Location     Type
   586 ;;		None               void
   587 ;; Registers used:
   588 ;;		wreg, fsr0l, fsr0h, fsr1l, fsr1h, status,2, status,0, btemp+1, pclath, cstack
   589 ;; Tracked objects:
   590 ;;		On entry : 17F/0
   591 ;;		On exit  : 1F/0
   592 ;;		Unchanged: 0/0
   593 ;; Data sizes:     COMMON   BANK0   BANK1   BANK2   BANK3   BANK4   BANK5   BANK6
   594 ;;      Params:         0       0       0       0       0       0       0       0
   595 ;;      Locals:         0      40       0       0       0       0       0       0
   596 ;;      Temps:          3       0       0       0       0       0       0       0
   597 ;;      Totals:         3      40       0       0       0       0       0       0
   598 ;;Total ram usage:       43 bytes
   599 ;; Hardware stack levels required when called:    4
   600 ;; This function calls:
   601 ;;		_syn_synack_ack
   602 ;;		_connection_est
   603 ;;		_putch
   604 ;;		_getch
   605 ;;		_hc_led_on
   606 ;;		_hc_led_off
   607 ;; This function is called by:
   608 ;;		Startup code after reset
   609 ;; This function uses a non-reentrant model
   610 ;;
   611  012E                     _main:	
   612                           
   613                           ;L210004 HC.c: 262: OSCCON = 0b01101000;
   614                           
   615                           ; Regs used in _main: [allreg]
   616  012E  3068               	movlw	104
   617  012F  0021               	movlb	1	; select bank1
   618  0130  0099               	movwf	25	;volatile
   619                           
   620                           ;L210004 HC.c: 265: WDTCON = 0b00011001;
   621  0131  3019               	movlw	25
   622  0132  0097               	movwf	23	;volatile
   623                           
   624                           ;L210004 HC.c: 266: _delay((unsigned long)((3000)*(4000000/4000.0)));
   625  0133  3010               	movlw	16
   626  0134  00F9               	movwf	??_main+2
   627  0135  3039               	movlw	57
   628  0136  00F8               	movwf	??_main+1
   629  0137  301B               	movlw	27
   630  0138  00F7               	movwf	??_main
   631  0139                     u3797:	
   632  0139  0BF7               	decfsz	??_main,f
   633  013A  2939               	goto	u3797
   634  013B  0BF8               	decfsz	??_main+1,f
   635  013C  2939               	goto	u3797
   636  013D  0BF9               	decfsz	??_main+2,f
   637  013E  2939               	goto	u3797
   638  013F  2940               	nop2
   639                           
   640                           ;L210004 HC.c: 271: TRISA = 0b01110111;
   641  0140  3077               	movlw	119
   642  0141  0021               	movlb	1	; select bank1
   643  0142  008C               	movwf	12	;volatile
   644                           
   645                           ;L210004 HC.c: 280: ANSELA = 0b00000000;
   646  0143  0023               	movlb	3	; select bank3
   647  0144  018C               	clrf	12	;volatile
   648                           
   649                           ;L210004 HC.c: 282: TRISB = 0b11111111;
   650  0145  30FF               	movlw	255
   651  0146  0021               	movlb	1	; select bank1
   652  0147  008D               	movwf	13	;volatile
   653                           
   654                           ;L210004 HC.c: 291: ANSELB = 0b00000000;
   655  0148  0023               	movlb	3	; select bank3
   656  0149  018D               	clrf	13	;volatile
   657                           
   658                           ;L210004 HC.c: 293: TRISC = 0b10101000;
   659  014A  30A8               	movlw	168
   660  014B  0021               	movlb	1	; select bank1
   661  014C  008E               	movwf	14	;volatile
   662                           
   663                           ;L210004 HC.c: 304: TRISD = 0b11101010;
   664  014D  30EA               	movlw	234
   665  014E  008F               	movwf	15	;volatile
   666                           
   667                           ;L210004 HC.c: 313: ANSELD = 0b0000000;
   668  014F  0023               	movlb	3	; select bank3
   669  0150  018F               	clrf	15	;volatile
   670                           
   671                           ;L210004 HC.c: 315: TRISE = 0b0001;
   672  0151  3001               	movlw	1
   673  0152  0021               	movlb	1	; select bank1
   674  0153  0090               	movwf	16	;volatile
   675                           
   676                           ;L210004 HC.c: 318: ANSELE = 0b0000;
   677  0154  0023               	movlb	3	; select bank3
   678  0155  0190               	clrf	16	;volatile
   679                           
   680                           ;L210004 HC.c: 321: OSCCON = 0b01101000;
   681  0156  3068               	movlw	104
   682  0157  0021               	movlb	1	; select bank1
   683  0158  0099               	movwf	25	;volatile
   684  0159  3019               	movlw	25
   685                           
   686                           ;L210004 HC.c: 323: TRISC7 = 1; TRISC6 = 1; SPBRG = ((int)(4000000L/(16UL * 9600) -1)); 
      +                          RCSTA = (0|0x90); TXSTA = (0x4|0|0x20);
   687  015A  178E               	bsf	14,7
   688  015B  170E               	bsf	14,6
   689  015C  0023               	movlb	3	; select bank3
   690  015D  009B               	movwf	27	;volatile
   691  015E  3090               	movlw	144
   692  015F  009D               	movwf	29	;volatile
   693  0160  3024               	movlw	36
   694  0161  009E               	movwf	30	;volatile
   695                           
   696                           ;L210004 HC.c: 336: PIE1 = 0b00000000;
   697  0162  0021               	movlb	1	; select bank1
   698  0163  0191               	clrf	17	;volatile
   699                           
   700                           ;L210004 HC.c: 348: OPTION_REG = 0b00001000;
   701  0164  3008               	movlw	8
   702  0165  0095               	movwf	21	;volatile
   703                           
   704                           ;L210004 HC.c: 357: WPUB = 0b00000000;
   705  0166  0024               	movlb	4	; select bank4
   706  0167  018D               	clrf	13	;volatile
   707                           
   708                           ;L210004 HC.c: 380: BAUDCON = 0b00000000;
   709  0168  0023               	movlb	3	; select bank3
   710  0169  019F               	clrf	31	;volatile
   711                           
   712                           ;L210004 HC.c: 381: SPBRGL = 0x0C;
   713  016A  300C               	movlw	12
   714  016B  009B               	movwf	27	;volatile
   715                           
   716                           ;L210004 HC.c: 382: SPBRGH = 0b00000000;
   717  016C  019C               	clrf	28	;volatile
   718                           
   719                           ;L210004 HC.c: 383: OPTION_REG = 0b00001110;
   720  016D  300E               	movlw	14
   721  016E  0021               	movlb	1	; select bank1
   722  016F  0095               	movwf	21	;volatile
   723  0170  30C8               	movlw	200
   724                           
   725                           ;L210004 HC.c: 385: TMR0IE = 1;
   726  0171  168B               	bsf	11,5
   727  0172  178B               	bsf	11,7
   728                           
   729                           ;L210004 HC.c: 389: int z0_de = 200;
   730  0173  0020               	movlb	0	; select bank0
   731  0174  00A0               	movwf	main@z0_de
   732  0175  01A1               	clrf	main@z0_de+1
   733                           
   734                           ;L210004 HC.c: 390: int z1_de = 200;
   735  0176  00A2               	movwf	main@z1_de
   736  0177  01A3               	clrf	main@z1_de+1
   737                           
   738                           ;L210004 HC.c: 391: int z2_de = 200;
   739  0178  00A4               	movwf	main@z2_de
   740  0179  01A5               	clrf	main@z2_de+1
   741                           
   742                           ;L210004 HC.c: 392: int z3_de = 200;
   743  017A  00A6               	movwf	main@z3_de
   744  017B  01A7               	clrf	main@z3_de+1
   745                           
   746                           ;L210004 HC.c: 393: int heat_de = 200;
   747  017C  00A8               	movwf	main@heat_de
   748  017D  01A9               	clrf	main@heat_de+1
   749                           
   750                           ;L210004 HC.c: 394: int mode_de = 200;
   751  017E  00AA               	movwf	main@mode_de
   752  017F  01AB               	clrf	main@mode_de+1
   753                           
   754                           ;L210004 HC.c: 395: int power_de = 200;
   755  0180  00AC               	movwf	main@power_de
   756  0181  30FF               	movlw	255
   757  0182  01AD               	clrf	main@power_de+1
   758                           
   759                           ;L210004 HC.c: 397: int safety = 0;
   760  0183  01B0               	clrf	main@safety
   761  0184  01B1               	clrf	main@safety+1
   762                           
   763                           ;L210004 HC.c: 399: LATA = 0xFF;
   764  0185  0022               	movlb	2	; select bank2
   765  0186  008C               	movwf	12	;volatile
   766                           
   767                           ;L210004 HC.c: 400: LATB = 0xFF;
   768  0187  008D               	movwf	13	;volatile
   769                           
   770                           ;L210004 HC.c: 401: LATC = 0xFF;
   771  0188  008E               	movwf	14	;volatile
   772                           
   773                           ;L210004 HC.c: 402: LATD = 0xFF;
   774  0189  008F               	movwf	15	;volatile
   775                           
   776                           ;L210004 HC.c: 403: LATE = 0xFF;
   777  018A  0090               	movwf	16	;volatile
   778                           
   779                           ;L210004 HC.c: 404: tx_buffer = 'a';
   780  018B  3061               	movlw	97
   781  018C  0020               	movlb	0	; select bank0
   782  018D  00DE               	movwf	_tx_buffer	;volatile
   783                           
   784                           ;L210004 HC.c: 407: LATC2 = 1;
   785  018E  0022               	movlb	2	; select bank2
   786  018F  3002               	movlw	2
   787  0190  150E               	bsf	14,2
   788                           
   789                           ;L210004 HC.c: 408: LATC1 = 1;
   790  0191  148E               	bsf	14,1
   791                           
   792                           ;L210004 HC.c: 409: LATC0 = 1;
   793  0192  140E               	bsf	14,0
   794                           
   795                           ;L210004 HC.c: 411: _delay((unsigned long)((250)*(4000000/4000.0)));
   796  0193  00F9               	movwf	??_main+2
   797  0194  3045               	movlw	69
   798  0195  00F8               	movwf	??_main+1
   799  0196  30A9               	movlw	169
   800  0197  00F7               	movwf	??_main
   801  0198                     u3807:	
   802  0198  0BF7               	decfsz	??_main,f
   803  0199  2998               	goto	u3807
   804  019A  0BF8               	decfsz	??_main+1,f
   805  019B  2998               	goto	u3807
   806  019C  0BF9               	decfsz	??_main+2,f
   807  019D  2998               	goto	u3807
   808  019E  299F               	nop2
   809                           
   810                           ;L210004 HC.c: 413: bool connect_ack = 1;
   811  019F  0020               	movlb	0	; select bank0
   812  01A0  01B2               	clrf	main@connect_ack
   813  01A1  0AB2               	incf	main@connect_ack,f
   814  01A2                     l6088:	
   815                           ;L210004 HC.c: 414: while(connect_ack){
   816                           
   817  01A2  08B2               	movf	main@connect_ack,f
   818  01A3  1903               	btfsc	3,2
   819  01A4  29AE               	goto	l6090
   820                           
   821                           ;L210004 HC.c: 415: connect_ack = !syn_synack_ack();
   822  01A5  211A  3180         	fcall	_syn_synack_ack
   823  01A7  3A00               	xorlw	0
   824  01A8  3000               	movlw	0
   825  01A9  1903               	skipnz
   826  01AA  3001               	movlw	1
   827  01AB  0020               	movlb	0	; select bank0
   828  01AC  00B2               	movwf	main@connect_ack
   829  01AD  29A2               	goto	l6088
   830  01AE                     l6090:	
   831                           
   832                           ;L210004 HC.c: 416: }
   833                           ;L210004 HC.c: 418: connection_est();
   834  01AE  20F5  3180         	fcall	_connection_est
   835                           
   836                           ;L210004 HC.c: 420: int x = 0;
   837  01B0  0020               	movlb	0	; select bank0
   838  01B1  01B4               	clrf	main@x
   839  01B2  01B5               	clrf	main@x+1
   840                           
   841                           ;L210004 HC.c: 421: for(unsigned int i = 0; i < (sizeof(last_tx)/sizeof((last_tx)[0])); 
      +                          ++i){
   842  01B3  01B6               	clrf	main@i
   843  01B4  01B7               	clrf	main@i+1
   844  01B5                     l6100:	
   845                           
   846                           ;L210004 HC.c: 422: putch('B');
   847  01B5  3042               	movlw	66
   848  01B6  254D  3180         	fcall	_putch
   849                           
   850                           ;L210004 HC.c: 423: last_tx[i] = 'B';
   851  01B8  0020               	movlb	0	; select bank0
   852  01B9  0836               	movf	main@i,w
   853  01BA  3E48               	addlw	_last_tx& (0+255)
   854  01BB  0086               	movwf	6
   855  01BC  3042               	movlw	66
   856  01BD  0187               	clrf	7
   857  01BE  0081               	movwf	1
   858                           
   859                           ;L210004 HC.c: 424: _delay((unsigned long)((5)*(4000000/4000000.0)));
   860  01BF  29C0               	nop2	;2 cycle nop
   861  01C0  29C1               	nop2	;2 cycle nop
   862  01C1  0064               	clrwdt
   863  01C2  0064               	clrwdt	;#
   864  01C3  0020               	movlb	0	; select bank0
   865  01C4  0AB6               	incf	main@i,f
   866  01C5  1903               	skipnz
   867  01C6  0AB7               	incf	main@i+1,f
   868  01C7  3000               	movlw	0
   869  01C8  0237               	subwf	main@i+1,w
   870  01C9  3005               	movlw	5
   871  01CA  1903               	skipnz
   872  01CB  0236               	subwf	main@i,w
   873  01CC  1C03               	skipc
   874  01CD  29B5               	goto	l6100
   875                           
   876                           ;L210004 HC.c: 426: }
   877                           ;L210004 HC.c: 427: for(unsigned int i = 0; i < (sizeof(rx_char)/sizeof((rx_char)[0])); 
      +                          ++i){
   878  01CE  01B8               	clrf	main@i_3349
   879  01CF  01B9               	clrf	main@i_3349+1
   880  01D0                     l6118:	
   881                           
   882                           ;L210004 HC.c: 428: rx_char[i] = getch();
   883  01D0  0838               	movf	main@i_3349,w
   884  01D1  3EA0               	addlw	_rx_char& (0+255)
   885  01D2  0086               	movwf	6
   886  01D3  0187               	clrf	7
   887  01D4  258E  3180         	fcall	_getch
   888  01D6  0081               	movwf	1
   889  01D7  0064               	clrwdt	;#
   890  01D8  0020               	movlb	0	; select bank0
   891  01D9  0AB8               	incf	main@i_3349,f
   892  01DA  1903               	skipnz
   893  01DB  0AB9               	incf	main@i_3349+1,f
   894  01DC  3000               	movlw	0
   895  01DD  0239               	subwf	main@i_3349+1,w
   896  01DE  3005               	movlw	5
   897  01DF  1903               	skipnz
   898  01E0  0238               	subwf	main@i_3349,w
   899  01E1  1C03               	skipc
   900  01E2  29D0               	goto	l6118
   901                           
   902                           ;L210004 HC.c: 430: }
   903                           ;L210004 HC.c: 431: for(unsigned int i = 0; i < (sizeof(last_tx)/sizeof((last_tx)[0])); 
      +                          ++i){
   904  01E3  01C2               	clrf	main@i_3350
   905  01E4  01C3               	clrf	main@i_3350+1
   906  01E5                     l6132:	
   907                           
   908                           ;L210004 HC.c: 432: if(last_tx[i] == rx_char[i]){
   909  01E5  0842               	movf	main@i_3350,w
   910  01E6  3EA0               	addlw	_rx_char& (0+255)
   911  01E7  0086               	movwf	6
   912  01E8  0187               	clrf	7
   913  01E9  0842               	movf	main@i_3350,w
   914  01EA  25E1  3180         	fcall	PL5	;call to abstracted procedure
   915  01EC  1903               	btfsc	3,2
   916                           
   917                           ;L210004 HC.c: 433: x++;
   918  01ED  0AB4               	incf	main@x,f
   919  01EE  1903               	skipnz
   920  01EF  0AB5               	incf	main@x+1,f
   921  01F0  0064               	clrwdt	;#
   922  01F1  0020               	movlb	0	; select bank0
   923  01F2  0AC2               	incf	main@i_3350,f
   924  01F3  1903               	skipnz
   925  01F4  0AC3               	incf	main@i_3350+1,f
   926  01F5  3000               	movlw	0
   927  01F6  0243               	subwf	main@i_3350+1,w
   928  01F7  3005               	movlw	5
   929  01F8  1903               	skipnz
   930  01F9  0242               	subwf	main@i_3350,w
   931  01FA  1C03               	skipc
   932  01FB  29E5               	goto	l6132
   933                           
   934                           ;L210004 HC.c: 436: }
   935                           ;L210004 HC.c: 437: if(x == 5){
   936  01FC  0834               	movf	main@x,w
   937  01FD  3A05               	xorlw	5
   938  01FE  0435               	iorwf	main@x+1,w
   939  01FF  1D03               	skipz
   940  0200  2A07               	goto	l6146
   941                           
   942                           ;L210004 HC.c: 439: putch('+');
   943  0201  302B               	movlw	43
   944  0202  254D  3180         	fcall	_putch
   945                           
   946                           ;L210004 HC.c: 440: x = 0;
   947  0204  0020               	movlb	0	; select bank0
   948  0205  01B4               	clrf	main@x
   949  0206  01B5               	clrf	main@x+1
   950  0207                     l6146:	
   951                           
   952                           ;L210004 HC.c: 441: }
   953                           ;L210004 HC.c: 443: for(unsigned int i = 0; i < (sizeof(last_tx)/sizeof((last_tx)[0])); 
      +                          ++i){
   954  0207  01BA               	clrf	main@i_3351
   955  0208  01BB               	clrf	main@i_3351+1
   956  0209                     l6152:	
   957                           
   958                           ;L210004 HC.c: 444: putch('Y');
   959  0209  3059               	movlw	89
   960  020A  254D  3180         	fcall	_putch
   961                           
   962                           ;L210004 HC.c: 445: last_tx[i] = 'Y';
   963  020C  0020               	movlb	0	; select bank0
   964  020D  083A               	movf	main@i_3351,w
   965  020E  3E48               	addlw	_last_tx& (0+255)
   966  020F  0086               	movwf	6
   967  0210  3059               	movlw	89
   968  0211  0187               	clrf	7
   969  0212  0081               	movwf	1
   970                           
   971                           ;L210004 HC.c: 446: _delay((unsigned long)((5)*(4000000/4000000.0)));
   972  0213  2A14               	nop2	;2 cycle nop
   973  0214  2A15               	nop2	;2 cycle nop
   974  0215  0064               	clrwdt
   975  0216  0064               	clrwdt	;#
   976  0217  0020               	movlb	0	; select bank0
   977  0218  0ABA               	incf	main@i_3351,f
   978  0219  1903               	skipnz
   979  021A  0ABB               	incf	main@i_3351+1,f
   980  021B  3000               	movlw	0
   981  021C  023B               	subwf	main@i_3351+1,w
   982  021D  3005               	movlw	5
   983  021E  1903               	skipnz
   984  021F  023A               	subwf	main@i_3351,w
   985  0220  1C03               	skipc
   986  0221  2A09               	goto	l6152
   987                           
   988                           ;L210004 HC.c: 448: }
   989                           ;L210004 HC.c: 449: for(unsigned int i = 0; i < (sizeof(rx_char)/sizeof((rx_char)[0])); 
      +                          ++i){
   990  0222  01BC               	clrf	main@i_3352
   991  0223  01BD               	clrf	main@i_3352+1
   992  0224                     l6170:	
   993                           
   994                           ;L210004 HC.c: 450: rx_char[i] = getch();
   995  0224  083C               	movf	main@i_3352,w
   996  0225  3EA0               	addlw	_rx_char& (0+255)
   997  0226  0086               	movwf	6
   998  0227  0187               	clrf	7
   999  0228  258E  3180         	fcall	_getch
  1000  022A  0081               	movwf	1
  1001  022B  0064               	clrwdt	;#
  1002  022C  0020               	movlb	0	; select bank0
  1003  022D  0ABC               	incf	main@i_3352,f
  1004  022E  1903               	skipnz
  1005  022F  0ABD               	incf	main@i_3352+1,f
  1006  0230  3000               	movlw	0
  1007  0231  023D               	subwf	main@i_3352+1,w
  1008  0232  3005               	movlw	5
  1009  0233  1903               	skipnz
  1010  0234  023C               	subwf	main@i_3352,w
  1011  0235  1C03               	skipc
  1012  0236  2A24               	goto	l6170
  1013                           
  1014                           ;L210004 HC.c: 452: }
  1015                           ;L210004 HC.c: 453: for(unsigned int i = 0; i < (sizeof(last_tx)/sizeof((last_tx)[0])); 
      +                          ++i){
  1016  0237  01C4               	clrf	main@i_3353
  1017  0238  01C5               	clrf	main@i_3353+1
  1018  0239                     l6184:	
  1019                           
  1020                           ;L210004 HC.c: 454: if(last_tx[i] == rx_char[i]){
  1021  0239  0844               	movf	main@i_3353,w
  1022  023A  3EA0               	addlw	_rx_char& (0+255)
  1023  023B  0086               	movwf	6
  1024  023C  0187               	clrf	7
  1025  023D  0844               	movf	main@i_3353,w
  1026  023E  25E1  3180         	fcall	PL5	;call to abstracted procedure
  1027  0240  1903               	btfsc	3,2
  1028                           
  1029                           ;L210004 HC.c: 455: x++;
  1030  0241  0AB4               	incf	main@x,f
  1031  0242  1903               	skipnz
  1032  0243  0AB5               	incf	main@x+1,f
  1033  0244  0064               	clrwdt	;#
  1034  0245  0020               	movlb	0	; select bank0
  1035  0246  0AC4               	incf	main@i_3353,f
  1036  0247  1903               	skipnz
  1037  0248  0AC5               	incf	main@i_3353+1,f
  1038  0249  3000               	movlw	0
  1039  024A  0245               	subwf	main@i_3353+1,w
  1040  024B  3005               	movlw	5
  1041  024C  1903               	skipnz
  1042  024D  0244               	subwf	main@i_3353,w
  1043  024E  1C03               	skipc
  1044  024F  2A39               	goto	l6184
  1045                           
  1046                           ;L210004 HC.c: 458: }
  1047                           ;L210004 HC.c: 459: if(x == 5){
  1048  0250  0834               	movf	main@x,w
  1049  0251  3A05               	xorlw	5
  1050  0252  0435               	iorwf	main@x+1,w
  1051  0253  1D03               	skipz
  1052  0254  2A59               	goto	l6200
  1053                           
  1054                           ;L210004 HC.c: 461: putch('+');
  1055  0255  302B               	movlw	43
  1056  0256  254D  3180         	fcall	_putch
  1057  0258  0064               	clrwdt	;#
  1058  0259                     l6200:	
  1059                           
  1060                           ;L210004 HC.c: 467: if(OERR || FERR){
  1061  0259  0023               	movlb	3	; select bank3
  1062  025A  189D               	btfsc	29,1
  1063  025B  2A5E               	goto	l2150
  1064  025C  1D1D               	btfss	29,2
  1065  025D  2A63               	goto	l6206
  1066  025E                     l2150:	
  1067                           
  1068                           ;L210004 HC.c: 468: CREN = 0;
  1069  025E  121D               	bcf	29,4
  1070                           
  1071                           ;L210004 HC.c: 469: SPEN = 0;
  1072  025F  139D               	bcf	29,7
  1073                           
  1074                           ;L210004 HC.c: 470: CREN = 1;
  1075  0260  161D               	bsf	29,4
  1076                           
  1077                           ;L210004 HC.c: 471: SPEN = 1;
  1078  0261  179D               	bsf	29,7
  1079                           
  1080                           ;L210004 HC.c: 472: tx_ferr = RCSTA;
  1081  0262  081D               	movf	29,w	;volatile
  1082  0263                     l6206:	
  1083                           
  1084                           ;L210004 HC.c: 473: }
  1085                           ;L210004 HC.c: 490: if(RD5){
  1086  0263  0020               	movlb	0	; select bank0
  1087  0264  1E8F               	btfss	15,5
  1088  0265  2A94               	goto	l6252
  1089                           
  1090                           ;L210004 HC.c: 491: if(!(--z0_de) && !pwr_on){
  1091  0266  30FF               	movlw	-1
  1092  0267  07A0               	addwf	main@z0_de,f
  1093  0268  1C03               	skipc
  1094  0269  03A1               	decf	main@z0_de+1,f
  1095  026A  0821               	movf	main@z0_de+1,w
  1096  026B  0420               	iorwf	main@z0_de,w
  1097  026C  1D03               	skipz
  1098  026D  2A98               	goto	l2158
  1099  026E  08EB               	movf	_pwr_on,f
  1100  026F  1D03               	skipz
  1101  0270  2A98               	goto	l2158
  1102                           
  1103                           ;L210004 HC.c: 492: if(z0_on && !z0_sent){
  1104  0271  086C               	movf	_z0_on,w	;volatile
  1105  0272  1903               	btfsc	3,2
  1106  0273  2A84               	goto	l6228
  1107  0274  08E1               	movf	_z0_sent,f
  1108  0275  1D03               	skipz
  1109  0276  2A84               	goto	l6228
  1110                           
  1111                           ;L210004 HC.c: 493: tx_buffer = 'L';
  1112  0277  304C               	movlw	76
  1113  0278  00DE               	movwf	_tx_buffer	;volatile
  1114                           
  1115                           ;L210004 HC.c: 494: tx_flag = 1;
  1116  0279  01DF               	clrf	_tx_flag	;volatile
  1117  027A  0ADF               	incf	_tx_flag,f	;volatile
  1118                           
  1119                           ;L210004 HC.c: 495: LATD4 = 0;
  1120  027B  0022               	movlb	2	; select bank2
  1121  027C  120F               	bcf	15,4
  1122                           
  1123                           ;L210004 HC.c: 496: z0_on = 0;
  1124  027D  0020               	movlb	0	; select bank0
  1125  027E  01EC               	clrf	_z0_on	;volatile
  1126                           
  1127                           ;L210004 HC.c: 497: z0_off = 1;
  1128  027F  01E0               	clrf	_z0_off	;volatile
  1129  0280  0AE0               	incf	_z0_off,f	;volatile
  1130  0281                     l6226:	
  1131                           
  1132                           ;L210004 HC.c: 498: massage_timeout = 20*60*29.5;
  1133  0281  25ED  3180         	fcall	PL7	;call to abstracted procedure
  1134                           
  1135                           ;L210004 HC.c: 499: }
  1136  0283  2A98               	goto	l2158
  1137  0284                     l6228:	
  1138                           
  1139                           ;L210004 HC.c: 500: else if(z0_off){
  1140  0284  0860               	movf	_z0_off,w	;volatile
  1141  0285  1903               	btfsc	3,2
  1142  0286  2A98               	goto	l2158
  1143                           
  1144                           ;L210004 HC.c: 501: tx_buffer = 'M';
  1145  0287  304D               	movlw	77
  1146  0288  00DE               	movwf	_tx_buffer	;volatile
  1147                           
  1148                           ;L210004 HC.c: 502: z0_sent = 1;
  1149  0289  01E1               	clrf	_z0_sent	;volatile
  1150  028A  0AE1               	incf	_z0_sent,f	;volatile
  1151                           
  1152                           ;L210004 HC.c: 503: tx_flag = 1;
  1153  028B  01DF               	clrf	_tx_flag	;volatile
  1154  028C  0ADF               	incf	_tx_flag,f	;volatile
  1155                           
  1156                           ;L210004 HC.c: 504: LATD4 = 1;
  1157  028D  0022               	movlb	2	; select bank2
  1158  028E  160F               	bsf	15,4
  1159                           
  1160                           ;L210004 HC.c: 505: z0_off = 0;
  1161  028F  0020               	movlb	0	; select bank0
  1162  0290  01E0               	clrf	_z0_off	;volatile
  1163                           
  1164                           ;L210004 HC.c: 506: z0_on = 1;
  1165  0291  01EC               	clrf	_z0_on	;volatile
  1166  0292  0AEC               	incf	_z0_on,f	;volatile
  1167  0293  2A81               	goto	l6226
  1168  0294                     l6252:	
  1169                           
  1170                           ;L210004 HC.c: 518: else{
  1171                           ;L210004 HC.c: 519: z0_de = 200;
  1172  0294  30C8               	movlw	200
  1173  0295  00A0               	movwf	main@z0_de
  1174  0296  01A1               	clrf	main@z0_de+1
  1175                           
  1176                           ;L210004 HC.c: 520: z0_sent = 0;
  1177  0297  01E1               	clrf	_z0_sent	;volatile
  1178  0298                     l2158:	
  1179                           
  1180                           ;L210004 HC.c: 526: }
  1181                           ;L210004 HC.c: 527: }
  1182                           ;L210004 HC.c: 529: if(RD3){
  1183  0298  1D8F               	btfss	15,3
  1184  0299  2AC8               	goto	l6304
  1185                           
  1186                           ;L210004 HC.c: 530: if(!(--z1_de) && !pwr_on){
  1187  029A  30FF               	movlw	-1
  1188  029B  07A2               	addwf	main@z1_de,f
  1189  029C  1C03               	skipc
  1190  029D  03A3               	decf	main@z1_de+1,f
  1191  029E  0823               	movf	main@z1_de+1,w
  1192  029F  0422               	iorwf	main@z1_de,w
  1193  02A0  1D03               	skipz
  1194  02A1  2ACC               	goto	l2168
  1195  02A2  08EB               	movf	_pwr_on,f
  1196  02A3  1D03               	skipz
  1197  02A4  2ACC               	goto	l2168
  1198                           
  1199                           ;L210004 HC.c: 531: if(z1_on && !z1_sent){
  1200  02A5  086E               	movf	_z1_on,w	;volatile
  1201  02A6  1903               	btfsc	3,2
  1202  02A7  2AB8               	goto	l6280
  1203  02A8  08E2               	movf	_z1_sent,f
  1204  02A9  1D03               	skipz
  1205  02AA  2AB8               	goto	l6280
  1206                           
  1207                           ;L210004 HC.c: 532: tx_buffer = 'N';
  1208  02AB  304E               	movlw	78
  1209  02AC  00DE               	movwf	_tx_buffer	;volatile
  1210                           
  1211                           ;L210004 HC.c: 533: tx_flag = 1;
  1212  02AD  01DF               	clrf	_tx_flag	;volatile
  1213  02AE  0ADF               	incf	_tx_flag,f	;volatile
  1214                           
  1215                           ;L210004 HC.c: 534: LATD2 = 0;
  1216  02AF  0022               	movlb	2	; select bank2
  1217  02B0  110F               	bcf	15,2
  1218                           
  1219                           ;L210004 HC.c: 535: z1_on = 0;
  1220  02B1  0020               	movlb	0	; select bank0
  1221  02B2  01EE               	clrf	_z1_on	;volatile
  1222                           
  1223                           ;L210004 HC.c: 536: z1_off = 1;
  1224  02B3  01ED               	clrf	_z1_off	;volatile
  1225  02B4  0AED               	incf	_z1_off,f	;volatile
  1226  02B5                     l6278:	
  1227                           
  1228                           ;L210004 HC.c: 537: massage_timeout = 20*60*29.5;
  1229  02B5  25ED  3180         	fcall	PL7	;call to abstracted procedure
  1230                           
  1231                           ;L210004 HC.c: 538: }
  1232  02B7  2ACC               	goto	l2168
  1233  02B8                     l6280:	
  1234                           
  1235                           ;L210004 HC.c: 539: else if(z1_off){
  1236  02B8  086D               	movf	_z1_off,w	;volatile
  1237  02B9  1903               	btfsc	3,2
  1238  02BA  2ACC               	goto	l2168
  1239                           
  1240                           ;L210004 HC.c: 540: tx_buffer = 'O';
  1241  02BB  304F               	movlw	79
  1242  02BC  00DE               	movwf	_tx_buffer	;volatile
  1243                           
  1244                           ;L210004 HC.c: 541: tx_flag = 1;
  1245  02BD  01DF               	clrf	_tx_flag	;volatile
  1246  02BE  0ADF               	incf	_tx_flag,f	;volatile
  1247                           
  1248                           ;L210004 HC.c: 542: LATD2 = 1;
  1249  02BF  0022               	movlb	2	; select bank2
  1250  02C0  150F               	bsf	15,2
  1251                           
  1252                           ;L210004 HC.c: 543: z1_off = 0;
  1253  02C1  0020               	movlb	0	; select bank0
  1254  02C2  01ED               	clrf	_z1_off	;volatile
  1255                           
  1256                           ;L210004 HC.c: 544: z1_on = 1;
  1257  02C3  01EE               	clrf	_z1_on	;volatile
  1258  02C4  0AEE               	incf	_z1_on,f	;volatile
  1259                           
  1260                           ;L210004 HC.c: 545: z1_sent = 1;
  1261  02C5  01E2               	clrf	_z1_sent	;volatile
  1262  02C6  0AE2               	incf	_z1_sent,f	;volatile
  1263  02C7  2AB5               	goto	l6278
  1264  02C8                     l6304:	
  1265                           
  1266                           ;L210004 HC.c: 556: else{
  1267                           ;L210004 HC.c: 557: z1_de = 200;
  1268  02C8  30C8               	movlw	200
  1269  02C9  00A2               	movwf	main@z1_de
  1270  02CA  01A3               	clrf	main@z1_de+1
  1271                           
  1272                           ;L210004 HC.c: 558: z1_sent = 0;
  1273  02CB  01E2               	clrf	_z1_sent	;volatile
  1274  02CC                     l2168:	
  1275                           
  1276                           ;L210004 HC.c: 564: }
  1277                           ;L210004 HC.c: 565: }
  1278                           ;L210004 HC.c: 567: if(RA6){
  1279  02CC  1F0C               	btfss	12,6
  1280  02CD  2AFC               	goto	l6356
  1281                           
  1282                           ;L210004 HC.c: 568: if(!(--z2_de) && !pwr_on){
  1283  02CE  30FF               	movlw	-1
  1284  02CF  07A4               	addwf	main@z2_de,f
  1285  02D0  1C03               	skipc
  1286  02D1  03A5               	decf	main@z2_de+1,f
  1287  02D2  0825               	movf	main@z2_de+1,w
  1288  02D3  0424               	iorwf	main@z2_de,w
  1289  02D4  1D03               	skipz
  1290  02D5  2B00               	goto	l2178
  1291  02D6  08EB               	movf	_pwr_on,f
  1292  02D7  1D03               	skipz
  1293  02D8  2B00               	goto	l2178
  1294                           
  1295                           ;L210004 HC.c: 569: if(z2_on && !z2_sent){
  1296  02D9  0864               	movf	_z2_on,w	;volatile
  1297  02DA  1903               	btfsc	3,2
  1298  02DB  2AEC               	goto	l6332
  1299  02DC  08E5               	movf	_z2_sent,f
  1300  02DD  1D03               	skipz
  1301  02DE  2AEC               	goto	l6332
  1302                           
  1303                           ;L210004 HC.c: 570: tx_buffer = 'P';
  1304  02DF  3050               	movlw	80
  1305  02E0  00DE               	movwf	_tx_buffer	;volatile
  1306                           
  1307                           ;L210004 HC.c: 571: tx_flag = 1;
  1308  02E1  01DF               	clrf	_tx_flag	;volatile
  1309  02E2  0ADF               	incf	_tx_flag,f	;volatile
  1310                           
  1311                           ;L210004 HC.c: 572: LATA7 = 0;
  1312  02E3  0022               	movlb	2	; select bank2
  1313  02E4  138C               	bcf	12,7
  1314                           
  1315                           ;L210004 HC.c: 573: z2_on = 0;
  1316  02E5  0020               	movlb	0	; select bank0
  1317  02E6  01E4               	clrf	_z2_on	;volatile
  1318                           
  1319                           ;L210004 HC.c: 574: z2_off = 1;
  1320  02E7  01E3               	clrf	_z2_off	;volatile
  1321  02E8  0AE3               	incf	_z2_off,f	;volatile
  1322  02E9                     l6330:	
  1323                           
  1324                           ;L210004 HC.c: 575: massage_timeout = 20*60*29.5;
  1325  02E9  25ED  3180         	fcall	PL7	;call to abstracted procedure
  1326                           
  1327                           ;L210004 HC.c: 576: }
  1328  02EB  2B00               	goto	l2178
  1329  02EC                     l6332:	
  1330                           
  1331                           ;L210004 HC.c: 577: else if(z2_off){
  1332  02EC  0863               	movf	_z2_off,w	;volatile
  1333  02ED  1903               	btfsc	3,2
  1334  02EE  2B00               	goto	l2178
  1335                           
  1336                           ;L210004 HC.c: 578: tx_buffer = 'Q';
  1337  02EF  3051               	movlw	81
  1338  02F0  00DE               	movwf	_tx_buffer	;volatile
  1339                           
  1340                           ;L210004 HC.c: 579: tx_flag = 1;
  1341  02F1  01DF               	clrf	_tx_flag	;volatile
  1342  02F2  0ADF               	incf	_tx_flag,f	;volatile
  1343                           
  1344                           ;L210004 HC.c: 580: LATA7 = 1;
  1345  02F3  0022               	movlb	2	; select bank2
  1346  02F4  178C               	bsf	12,7
  1347                           
  1348                           ;L210004 HC.c: 581: z2_off = 0;
  1349  02F5  0020               	movlb	0	; select bank0
  1350  02F6  01E3               	clrf	_z2_off	;volatile
  1351                           
  1352                           ;L210004 HC.c: 582: z2_on = 1;
  1353  02F7  01E4               	clrf	_z2_on	;volatile
  1354  02F8  0AE4               	incf	_z2_on,f	;volatile
  1355                           
  1356                           ;L210004 HC.c: 583: z2_sent = 1;
  1357  02F9  01E5               	clrf	_z2_sent	;volatile
  1358  02FA  0AE5               	incf	_z2_sent,f	;volatile
  1359  02FB  2AE9               	goto	l6330
  1360  02FC                     l6356:	
  1361                           
  1362                           ;L210004 HC.c: 594: else{
  1363                           ;L210004 HC.c: 595: z2_de = 200;
  1364  02FC  30C8               	movlw	200
  1365  02FD  00A4               	movwf	main@z2_de
  1366  02FE  01A5               	clrf	main@z2_de+1
  1367                           
  1368                           ;L210004 HC.c: 596: z2_sent = 0;
  1369  02FF  01E5               	clrf	_z2_sent	;volatile
  1370  0300                     l2178:	
  1371                           
  1372                           ;L210004 HC.c: 602: }
  1373                           ;L210004 HC.c: 603: }
  1374                           ;L210004 HC.c: 605: if(RC5){
  1375  0300  1E8E               	btfss	14,5
  1376  0301  2B30               	goto	l6408
  1377                           
  1378                           ;L210004 HC.c: 606: if(!(--z3_de) && !pwr_on){
  1379  0302  30FF               	movlw	-1
  1380  0303  07A6               	addwf	main@z3_de,f
  1381  0304  1C03               	skipc
  1382  0305  03A7               	decf	main@z3_de+1,f
  1383  0306  0827               	movf	main@z3_de+1,w
  1384  0307  0426               	iorwf	main@z3_de,w
  1385  0308  1D03               	skipz
  1386  0309  2B34               	goto	l2188
  1387  030A  08EB               	movf	_pwr_on,f
  1388  030B  1D03               	skipz
  1389  030C  2B34               	goto	l2188
  1390                           
  1391                           ;L210004 HC.c: 607: if(z3_on && !z3_sent){
  1392  030D  086F               	movf	_z3_on,w	;volatile
  1393  030E  1903               	btfsc	3,2
  1394  030F  2B20               	goto	l6384
  1395  0310  08E7               	movf	_z3_sent,f
  1396  0311  1D03               	skipz
  1397  0312  2B20               	goto	l6384
  1398                           
  1399                           ;L210004 HC.c: 608: tx_buffer = 'R';
  1400  0313  3052               	movlw	82
  1401  0314  00DE               	movwf	_tx_buffer	;volatile
  1402                           
  1403                           ;L210004 HC.c: 609: tx_flag = 1;
  1404  0315  01DF               	clrf	_tx_flag	;volatile
  1405  0316  0ADF               	incf	_tx_flag,f	;volatile
  1406                           
  1407                           ;L210004 HC.c: 610: LATC4 = 0;
  1408  0317  0022               	movlb	2	; select bank2
  1409  0318  120E               	bcf	14,4
  1410                           
  1411                           ;L210004 HC.c: 611: z3_on = 0;
  1412  0319  0020               	movlb	0	; select bank0
  1413  031A  01EF               	clrf	_z3_on	;volatile
  1414                           
  1415                           ;L210004 HC.c: 612: z3_off = 1;
  1416  031B  01E6               	clrf	_z3_off	;volatile
  1417  031C  0AE6               	incf	_z3_off,f	;volatile
  1418  031D                     l6382:	
  1419                           
  1420                           ;L210004 HC.c: 613: massage_timeout = 20*60*29.5;
  1421  031D  25ED  3180         	fcall	PL7	;call to abstracted procedure
  1422                           
  1423                           ;L210004 HC.c: 614: }
  1424  031F  2B34               	goto	l2188
  1425  0320                     l6384:	
  1426                           
  1427                           ;L210004 HC.c: 615: else if(z3_off){
  1428  0320  0866               	movf	_z3_off,w	;volatile
  1429  0321  1903               	btfsc	3,2
  1430  0322  2B34               	goto	l2188
  1431                           
  1432                           ;L210004 HC.c: 616: tx_buffer = 'S';
  1433  0323  3053               	movlw	83
  1434  0324  00DE               	movwf	_tx_buffer	;volatile
  1435                           
  1436                           ;L210004 HC.c: 617: tx_flag = 1;
  1437  0325  01DF               	clrf	_tx_flag	;volatile
  1438  0326  0ADF               	incf	_tx_flag,f	;volatile
  1439                           
  1440                           ;L210004 HC.c: 618: LATC4 = 1;
  1441  0327  0022               	movlb	2	; select bank2
  1442  0328  160E               	bsf	14,4
  1443                           
  1444                           ;L210004 HC.c: 619: z3_off = 0;
  1445  0329  0020               	movlb	0	; select bank0
  1446  032A  01E6               	clrf	_z3_off	;volatile
  1447                           
  1448                           ;L210004 HC.c: 620: z3_on = 1;
  1449  032B  01EF               	clrf	_z3_on	;volatile
  1450  032C  0AEF               	incf	_z3_on,f	;volatile
  1451                           
  1452                           ;L210004 HC.c: 621: z3_sent = 1;
  1453  032D  01E7               	clrf	_z3_sent	;volatile
  1454  032E  0AE7               	incf	_z3_sent,f	;volatile
  1455  032F  2B1D               	goto	l6382
  1456  0330                     l6408:	
  1457                           
  1458                           ;L210004 HC.c: 632: else{
  1459                           ;L210004 HC.c: 633: z3_de = 200;
  1460  0330  30C8               	movlw	200
  1461  0331  00A6               	movwf	main@z3_de
  1462  0332  01A7               	clrf	main@z3_de+1
  1463                           
  1464                           ;L210004 HC.c: 634: z3_sent = 0;
  1465  0333  01E7               	clrf	_z3_sent	;volatile
  1466  0334                     l2188:	
  1467                           
  1468                           ;L210004 HC.c: 640: }
  1469                           ;L210004 HC.c: 641: }
  1470                           ;L210004 HC.c: 643: if(RC3){
  1471  0334  1D8E               	btfss	14,3
  1472  0335  2B87               	goto	l6460
  1473                           
  1474                           ;L210004 HC.c: 644: if(!(--mode_de) && !pwr_on){
  1475  0336  30FF               	movlw	-1
  1476  0337  07AA               	addwf	main@mode_de,f
  1477  0338  1C03               	skipc
  1478  0339  03AB               	decf	main@mode_de+1,f
  1479  033A  082B               	movf	main@mode_de+1,w
  1480  033B  042A               	iorwf	main@mode_de,w
  1481  033C  1D03               	skipz
  1482  033D  2B8A               	goto	l6462
  1483  033E  08EB               	movf	_pwr_on,f
  1484  033F  1D03               	skipz
  1485  0340  2B8A               	goto	l6462
  1486                           
  1487                           ;L210004 HC.c: 645: mode_state++;
  1488  0341  0AE8               	incf	_mode_state,f	;volatile
  1489  0342  1903               	skipnz
  1490  0343  0AE9               	incf	_mode_state+1,f	;volatile
  1491                           
  1492                           ;L210004 HC.c: 646: if(mode_state > 3){
  1493  0344  0869               	movf	_mode_state+1,w	;volatile
  1494  0345  3A80               	xorlw	128
  1495  0346  00FF               	movwf	127
  1496  0347  3080               	movlw	128
  1497  0348  027F               	subwf	127,w
  1498  0349  1D03               	skipz
  1499  034A  2B4D               	goto	u3215
  1500  034B  3004               	movlw	4
  1501  034C  0268               	subwf	_mode_state,w	;volatile
  1502  034D                     u3215:	
  1503  034D  1C03               	skipc
  1504  034E  2B76               	goto	l6458
  1505                           
  1506                           ;L210004 HC.c: 647: mode_state = 1;
  1507  034F  3001               	movlw	1
  1508  0350  0020               	movlb	0	; select bank0
  1509  0351  00E8               	movwf	_mode_state	;volatile
  1510  0352  01E9               	clrf	_mode_state+1	;volatile
  1511  0353  2B76               	goto	l6458
  1512  0354                     l6426:	
  1513                           
  1514                           ;L210004 HC.c: 651: tx_buffer = 'T';
  1515  0354  3054               	movlw	84
  1516  0355  00DE               	movwf	_tx_buffer	;volatile
  1517                           
  1518                           ;L210004 HC.c: 652: tx_flag = 1;
  1519  0356  01DF               	clrf	_tx_flag	;volatile
  1520  0357  0ADF               	incf	_tx_flag,f	;volatile
  1521                           
  1522                           ;L210004 HC.c: 653: LATC2 = 0;
  1523  0358  0022               	movlb	2	; select bank2
  1524  0359  110E               	bcf	14,2
  1525                           
  1526                           ;L210004 HC.c: 654: LATC1 = 1;
  1527  035A  148E               	bsf	14,1
  1528  035B                     l6434:	
  1529  035B  3048               	movlw	72
  1530                           
  1531                           ;L210004 HC.c: 655: LATC0 = 1;
  1532  035C  140E               	bsf	14,0
  1533  035D  2B6F               	goto	L1
  1534  035E                     l6436:	
  1535                           ;L210004 HC.c: 657: break;
  1536                           
  1537                           ;L210004 HC.c: 656: massage_timeout = 20*60*29.5;
  1538                           
  1539                           
  1540                           ;L210004 HC.c: 659: tx_buffer = 'V';
  1541  035E  3056               	movlw	86
  1542  035F  00DE               	movwf	_tx_buffer	;volatile
  1543                           
  1544                           ;L210004 HC.c: 660: tx_flag = 1;
  1545  0360  01DF               	clrf	_tx_flag	;volatile
  1546  0361  0ADF               	incf	_tx_flag,f	;volatile
  1547                           
  1548                           ;L210004 HC.c: 661: LATC2 = 1;
  1549  0362  0022               	movlb	2	; select bank2
  1550  0363  150E               	bsf	14,2
  1551                           
  1552                           ;L210004 HC.c: 662: LATC1 = 0;
  1553  0364  108E               	bcf	14,1
  1554  0365  2B5B               	goto	l6434
  1555  0366                     l6446:	
  1556                           
  1557                           ;L210004 HC.c: 667: tx_buffer = 'U';
  1558  0366  3055               	movlw	85
  1559  0367  00DE               	movwf	_tx_buffer	;volatile
  1560                           
  1561                           ;L210004 HC.c: 668: tx_flag = 1;
  1562  0368  01DF               	clrf	_tx_flag	;volatile
  1563  0369  0ADF               	incf	_tx_flag,f	;volatile
  1564                           
  1565                           ;L210004 HC.c: 669: LATC2 = 1;
  1566  036A  0022               	movlb	2	; select bank2
  1567  036B  3048               	movlw	72
  1568  036C  150E               	bsf	14,2
  1569                           
  1570                           ;L210004 HC.c: 670: LATC1 = 1;
  1571  036D  148E               	bsf	14,1
  1572  036E  100E               	bcf	14,0
  1573  036F                     L1:	
  1574                           
  1575                           ;L210004 HC.c: 672: massage_timeout = 20*60*29.5;
  1576  036F  00FC               	movwf	_massage_timeout	;volatile
  1577  0370  308A               	movlw	138
  1578  0371  00FD               	movwf	_massage_timeout+1	;volatile
  1579                           
  1580                           ;L210004 HC.c: 673: break;
  1581  0372  2B8A               	goto	l6462
  1582  0373                     l6456:	
  1583                           
  1584                           ;L210004 HC.c: 675: mode_state = 0;
  1585  0373  01E8               	clrf	_mode_state	;volatile
  1586  0374  01E9               	clrf	_mode_state+1	;volatile
  1587                           
  1588                           ;L210004 HC.c: 676: }
  1589  0375  2B8A               	goto	l6462
  1590  0376                     l6458:	
  1591                           
  1592                           ; Switch on 2 bytes has been partitioned into a top level switch of size 1, and 1 sub-sw
      +                          itches
  1593                           ; Switch size 1, requested type "space"
  1594                           ; Number of cases is 1, Range of values is 0 to 0
  1595                           ; switch strategies available:
  1596                           ; Name         Instructions Cycles
  1597                           ; simple_byte            4     3 (average)
  1598                           ; direct_byte            8     6 (fixed)
  1599                           ; jumptable            260     6 (fixed)
  1600                           ; rangetable             5     4 (fixed)
  1601                           ; spacedrange            7     6 (fixed)
  1602                           ; locatedrange           1     3 (fixed)
  1603                           ;	Chosen strategy is simple_byte
  1604  0376  0020               	movlb	0	; select bank0
  1605  0377  0869               	movf	_mode_state+1,w	;volatile
  1606  0378  3A00               	xorlw	0	; case 0
  1607  0379  1903               	skipnz
  1608  037A  2B7C               	goto	l6882
  1609  037B  2B73               	goto	l6456
  1610  037C                     l6882:	
  1611                           
  1612                           ; Switch size 1, requested type "space"
  1613                           ; Number of cases is 3, Range of values is 1 to 3
  1614                           ; switch strategies available:
  1615                           ; Name         Instructions Cycles
  1616                           ; simple_byte           10     6 (average)
  1617                           ; direct_byte           15     9 (fixed)
  1618                           ; jumptable            263     9 (fixed)
  1619                           ;	Chosen strategy is simple_byte
  1620  037C  0868               	movf	_mode_state,w	;volatile
  1621  037D  3A01               	xorlw	1	; case 1
  1622  037E  1903               	skipnz
  1623  037F  2B54               	goto	l6426
  1624  0380  3A03               	xorlw	3	; case 2
  1625  0381  1903               	skipnz
  1626  0382  2B5E               	goto	l6436
  1627  0383  3A01               	xorlw	1	; case 3
  1628  0384  1903               	skipnz
  1629  0385  2B66               	goto	l6446
  1630  0386  2B73               	goto	l6456
  1631  0387                     l6460:	
  1632                           
  1633                           ;L210004 HC.c: 679: else{
  1634                           ;L210004 HC.c: 680: mode_de = 200;
  1635  0387  30C8               	movlw	200
  1636  0388  00AA               	movwf	main@mode_de
  1637  0389  01AB               	clrf	main@mode_de+1
  1638  038A                     l6462:	
  1639                           
  1640                           ;L210004 HC.c: 682: }
  1641                           ;L210004 HC.c: 684: if(RB4){
  1642  038A  0020               	movlb	0	; select bank0
  1643  038B  1E0D               	btfss	13,4
  1644  038C  2BBC               	goto	l6508
  1645                           
  1646                           ;L210004 HC.c: 685: if(RD1){
  1647  038D  188F               	btfsc	15,1
  1648  038E  2BC0               	goto	l2210
  1649                           
  1650                           ;L210004 HC.c: 687: else{
  1651                           ;L210004 HC.c: 688: if(!(--heat_de)){
  1652  038F  30FF               	movlw	-1
  1653  0390  07A8               	addwf	main@heat_de,f
  1654  0391  1C03               	skipc
  1655  0392  03A9               	decf	main@heat_de+1,f
  1656  0393  0829               	movf	main@heat_de+1,w
  1657  0394  0428               	iorwf	main@heat_de,w
  1658  0395  1D03               	skipz
  1659  0396  2BC0               	goto	l2210
  1660                           
  1661                           ;L210004 HC.c: 689: if(heat_on && !heat_sent){
  1662  0397  086A               	movf	_heat_on,w	;volatile
  1663  0398  1903               	btfsc	3,2
  1664  0399  2BAC               	goto	l6486
  1665  039A  08CE               	movf	_heat_sent,f
  1666  039B  1D03               	skipz
  1667  039C  2BAC               	goto	l6486
  1668                           
  1669                           ;L210004 HC.c: 690: tx_buffer = 'W';
  1670  039D  3057               	movlw	87
  1671  039E  00DE               	movwf	_tx_buffer	;volatile
  1672                           
  1673                           ;L210004 HC.c: 691: tx_flag = 1;
  1674  039F  01DF               	clrf	_tx_flag	;volatile
  1675  03A0  0ADF               	incf	_tx_flag,f	;volatile
  1676                           
  1677                           ;L210004 HC.c: 692: LATA3 = 0;
  1678  03A1  0022               	movlb	2	; select bank2
  1679  03A2  118C               	bcf	12,3
  1680                           
  1681                           ;L210004 HC.c: 693: heat_on = 0;
  1682  03A3  0020               	movlb	0	; select bank0
  1683  03A4  01EA               	clrf	_heat_on	;volatile
  1684                           
  1685                           ;L210004 HC.c: 694: heat_off = 1;
  1686  03A5  01CD               	clrf	_heat_off	;volatile
  1687  03A6  0ACD               	incf	_heat_off,f	;volatile
  1688                           
  1689                           ;L210004 HC.c: 695: heat_timeout = 20*60*29.5;
  1690  03A7  3048               	movlw	72
  1691  03A8  00FA               	movwf	_heat_timeout	;volatile
  1692  03A9  308A               	movlw	138
  1693  03AA  00FB               	movwf	_heat_timeout+1	;volatile
  1694                           
  1695                           ;L210004 HC.c: 696: }
  1696  03AB  2BC0               	goto	l2210
  1697  03AC                     l6486:	
  1698                           
  1699                           ;L210004 HC.c: 697: else if(heat_off){
  1700  03AC  084D               	movf	_heat_off,w	;volatile
  1701  03AD  1903               	btfsc	3,2
  1702  03AE  2BC0               	goto	l2210
  1703                           
  1704                           ;L210004 HC.c: 698: tx_buffer = 'X';
  1705  03AF  3058               	movlw	88
  1706  03B0  00DE               	movwf	_tx_buffer	;volatile
  1707                           
  1708                           ;L210004 HC.c: 699: tx_flag = 1;
  1709  03B1  01DF               	clrf	_tx_flag	;volatile
  1710  03B2  0ADF               	incf	_tx_flag,f	;volatile
  1711                           
  1712                           ;L210004 HC.c: 700: LATA3 = 1;
  1713  03B3  0022               	movlb	2	; select bank2
  1714  03B4  158C               	bsf	12,3
  1715                           
  1716                           ;L210004 HC.c: 701: heat_off = 0;
  1717  03B5  0020               	movlb	0	; select bank0
  1718  03B6  01CD               	clrf	_heat_off	;volatile
  1719                           
  1720                           ;L210004 HC.c: 702: heat_on = 1;
  1721  03B7  01EA               	clrf	_heat_on	;volatile
  1722  03B8  0AEA               	incf	_heat_on,f	;volatile
  1723                           
  1724                           ;L210004 HC.c: 703: heat_sent = 1;
  1725  03B9  01CE               	clrf	_heat_sent	;volatile
  1726  03BA  0ACE               	incf	_heat_sent,f	;volatile
  1727  03BB  2BC0               	goto	l2210
  1728  03BC                     l6508:	
  1729                           
  1730                           ;L210004 HC.c: 714: else{
  1731                           ;L210004 HC.c: 715: heat_de = 200;
  1732  03BC  30C8               	movlw	200
  1733  03BD  00A8               	movwf	main@heat_de
  1734  03BE  01A9               	clrf	main@heat_de+1
  1735                           
  1736                           ;L210004 HC.c: 716: heat_sent = 0;
  1737  03BF  01CE               	clrf	_heat_sent	;volatile
  1738  03C0                     l2210:	
  1739                           
  1740                           ;L210004 HC.c: 722: }
  1741                           ;L210004 HC.c: 723: }
  1742                           ;L210004 HC.c: 725: if(RD1){
  1743  03C0  1C8F               	btfss	15,1
  1744  03C1  2C0A               	goto	l6568
  1745                           
  1746                           ;L210004 HC.c: 726: if(!(--power_de)){
  1747  03C2  30FF               	movlw	-1
  1748  03C3  07AC               	addwf	main@power_de,f
  1749  03C4  1C03               	skipc
  1750  03C5  03AD               	decf	main@power_de+1,f
  1751  03C6  082D               	movf	main@power_de+1,w
  1752  03C7  042C               	iorwf	main@power_de,w
  1753  03C8  1D03               	skipz
  1754  03C9  2C0E               	goto	l2223
  1755                           
  1756                           ;L210004 HC.c: 727: if(pwr_on && !pwr_sent){
  1757  03CA  086B               	movf	_pwr_on,w	;volatile
  1758  03CB  1903               	btfsc	3,2
  1759  03CC  2BF9               	goto	l6546
  1760  03CD  08DD               	movf	_pwr_sent,f
  1761  03CE  1D03               	skipz
  1762  03CF  2BF9               	goto	l6546
  1763                           
  1764                           ;L210004 HC.c: 728: tx_buffer = 'A';
  1765  03D0  3041               	movlw	65
  1766  03D1  00DE               	movwf	_tx_buffer	;volatile
  1767                           
  1768                           ;L210004 HC.c: 729: tx_flag = 1;
  1769  03D2  01DF               	clrf	_tx_flag	;volatile
  1770  03D3  0ADF               	incf	_tx_flag,f	;volatile
  1771                           
  1772                           ;L210004 HC.c: 730: hc_led_on();
  1773  03D4  25B0  3180         	fcall	_hc_led_on
  1774                           
  1775                           ;L210004 HC.c: 731: pwr_on = 0;
  1776  03D6  01EB               	clrf	_pwr_on	;volatile
  1777                           
  1778                           ;L210004 HC.c: 732: pwr_off = 1;
  1779  03D7  01DC               	clrf	_pwr_off	;volatile
  1780  03D8  0ADC               	incf	_pwr_off,f	;volatile
  1781                           
  1782                           ;L210004 HC.c: 733: massage_timeout = 20*60*29.5;
  1783  03D9  3048               	movlw	72
  1784  03DA  00FC               	movwf	_massage_timeout	;volatile
  1785  03DB  308A               	movlw	138
  1786  03DC  00FD               	movwf	_massage_timeout+1	;volatile
  1787                           
  1788                           ;L210004 HC.c: 734: if(mode_state == 1){
  1789  03DD  0368               	decf	_mode_state,w	;volatile
  1790  03DE  0469               	iorwf	_mode_state+1,w	;volatile
  1791  03DF  1D03               	skipz
  1792  03E0  2BE5               	goto	l6538
  1793                           
  1794                           ;L210004 HC.c: 735: LATC2 = 0;
  1795  03E1  0022               	movlb	2	; select bank2
  1796  03E2  110E               	bcf	14,2
  1797                           
  1798                           ;L210004 HC.c: 736: LATC1 = 1;
  1799  03E3  148E               	bsf	14,1
  1800  03E4  2BED               	goto	L2
  1801  03E5                     l6538:	
  1802                           ;L210004 HC.c: 738: }
  1803                           
  1804                           ;L210004 HC.c: 737: LATC0 = 1;
  1805                           
  1806                           
  1807                           ;L210004 HC.c: 739: else if(mode_state == 2){
  1808  03E5  0868               	movf	_mode_state,w	;volatile
  1809  03E6  3A02               	xorlw	2
  1810  03E7  0469               	iorwf	_mode_state+1,w	;volatile
  1811  03E8  1D03               	skipz
  1812  03E9  2BEF               	goto	l6542
  1813                           
  1814                           ;L210004 HC.c: 740: LATC2 = 1;
  1815  03EA  0022               	movlb	2	; select bank2
  1816  03EB  150E               	bsf	14,2
  1817                           
  1818                           ;L210004 HC.c: 741: LATC1 = 0;
  1819  03EC  108E               	bcf	14,1
  1820  03ED                     L2:	
  1821                           
  1822                           ;L210004 HC.c: 742: LATC0 = 1;
  1823  03ED  140E               	bsf	14,0
  1824                           
  1825                           ;L210004 HC.c: 743: }
  1826  03EE  2C0E               	goto	l2223
  1827  03EF                     l6542:	
  1828                           
  1829                           ;L210004 HC.c: 744: else if(mode_state == 3){
  1830  03EF  0868               	movf	_mode_state,w	;volatile
  1831  03F0  3A03               	xorlw	3
  1832  03F1  0469               	iorwf	_mode_state+1,w	;volatile
  1833  03F2  1D03               	skipz
  1834  03F3  2C0E               	goto	l2223
  1835                           
  1836                           ;L210004 HC.c: 745: LATC2 = 1;
  1837  03F4  0022               	movlb	2	; select bank2
  1838  03F5  150E               	bsf	14,2
  1839                           
  1840                           ;L210004 HC.c: 746: LATC1 = 1;
  1841  03F6  148E               	bsf	14,1
  1842                           
  1843                           ;L210004 HC.c: 747: LATC0 = 0;
  1844  03F7  100E               	bcf	14,0
  1845  03F8  2C0E               	goto	l2223
  1846  03F9                     l6546:	
  1847                           
  1848                           ;L210004 HC.c: 750: else if(pwr_off){
  1849  03F9  085C               	movf	_pwr_off,w	;volatile
  1850  03FA  1903               	btfsc	3,2
  1851  03FB  2C0E               	goto	l2223
  1852                           
  1853                           ;L210004 HC.c: 751: tx_buffer = 'B';
  1854  03FC  3042               	movlw	66
  1855  03FD  00DE               	movwf	_tx_buffer	;volatile
  1856                           
  1857                           ;L210004 HC.c: 752: tx_flag = 1;
  1858  03FE  01DF               	clrf	_tx_flag	;volatile
  1859  03FF  0ADF               	incf	_tx_flag,f	;volatile
  1860                           
  1861                           ;L210004 HC.c: 753: hc_led_off();
  1862  0400  2571  3180         	fcall	_hc_led_off
  1863                           
  1864                           ;L210004 HC.c: 754: LATA3 = 1;
  1865                           
  1866                           ;L210004 HC.c: 755: heat_on = 1;
  1867                           
  1868                           ;L210004 HC.c: 756: heat_off = 0;
  1869                           
  1870                           ;L210004 HC.c: 757: pwr_off = 0;
  1871                           
  1872                           ;L210004 HC.c: 758: pwr_on = 1;
  1873  0402  25D1  3180         	fcall	PL3	;call to abstracted procedure
  1874                           
  1875                           ;L210004 HC.c: 759: pwr_sent = 1;
  1876  0404  01DD               	clrf	_pwr_sent	;volatile
  1877  0405  0ADD               	incf	_pwr_sent,f	;volatile
  1878                           
  1879                           ;L210004 HC.c: 760: mode_state = 1;
  1880  0406  3001               	movlw	1
  1881  0407  00E8               	movwf	_mode_state	;volatile
  1882  0408  01E9               	clrf	_mode_state+1	;volatile
  1883  0409  2C0E               	goto	l2223
  1884  040A                     l6568:	
  1885                           
  1886                           ;L210004 HC.c: 764: else{
  1887                           ;L210004 HC.c: 765: power_de = 200;
  1888  040A  30C8               	movlw	200
  1889  040B  00AC               	movwf	main@power_de
  1890  040C  01AD               	clrf	main@power_de+1
  1891                           
  1892                           ;L210004 HC.c: 766: pwr_sent = 0;
  1893  040D  01DD               	clrf	_pwr_sent	;volatile
  1894  040E                     l2223:	
  1895                           
  1896                           ;L210004 HC.c: 772: }
  1897                           ;L210004 HC.c: 773: }
  1898                           ;L210004 HC.c: 774: if((LATD0 == 0)&&(LATD4 == 1)&&(LATD2 == 1)&&(LATA7 == 1)&&(LATC4 ==
      +                           1)){
  1899  040E  0022               	movlb	2	; select bank2
  1900  040F  1C0F               	btfss	15,0
  1901  0410  1E0F               	btfss	15,4
  1902  0411  2C20               	goto	l6602
  1903  0412  190F               	btfsc	15,2
  1904  0413  1F8C               	btfss	12,7
  1905  0414  2C20               	goto	l6602
  1906  0415  1E0E               	btfss	14,4
  1907  0416  2C20               	goto	l6602
  1908                           
  1909                           ;L210004 HC.c: 775: tx_buffer = 'B';
  1910  0417  3042               	movlw	66
  1911  0418  0020               	movlb	0	; select bank0
  1912  0419  00DE               	movwf	_tx_buffer	;volatile
  1913                           
  1914                           ;L210004 HC.c: 776: tx_flag = 1;
  1915  041A  01DF               	clrf	_tx_flag	;volatile
  1916  041B  0ADF               	incf	_tx_flag,f	;volatile
  1917                           
  1918                           ;L210004 HC.c: 777: hc_led_off();
  1919  041C  2571  3180         	fcall	_hc_led_off
  1920                           
  1921                           ;L210004 HC.c: 778: LATA3 = 1;
  1922                           
  1923                           ;L210004 HC.c: 779: heat_on = 1;
  1924                           
  1925                           ;L210004 HC.c: 780: heat_off = 0;
  1926                           
  1927                           ;L210004 HC.c: 781: pwr_off = 0;
  1928                           
  1929                           ;L210004 HC.c: 782: pwr_on = 1;
  1930  041E  25D1  3180         	fcall	PL3	;call to abstracted procedure
  1931  0420                     l6602:	
  1932                           
  1933                           ;L210004 HC.c: 783: }
  1934                           ;L210004 HC.c: 790: if(lum_btn_op){
  1935  0420  0020               	movlb	0	; select bank0
  1936  0421  0854               	movf	_lum_btn_op,w	;volatile
  1937  0422  1903               	btfsc	3,2
  1938  0423  2C3C               	goto	l6624
  1939                           
  1940                           ;L210004 HC.c: 791: if(last_tx[0] == 'I'){
  1941  0424  0848               	movf	_last_tx,w
  1942  0425  3A49               	xorlw	73
  1943  0426  1D03               	skipz
  1944  0427  2C2B               	goto	l6608
  1945                           
  1946                           ;L210004 HC.c: 792: lum_op_sent = 1;
  1947  0428  01D6               	clrf	_lum_op_sent	;volatile
  1948  0429  0AD6               	incf	_lum_op_sent,f	;volatile
  1949                           
  1950                           ;L210004 HC.c: 793: }
  1951  042A  2C2C               	goto	l6610
  1952  042B                     l6608:	
  1953                           
  1954                           ;L210004 HC.c: 794: else{
  1955                           ;L210004 HC.c: 795: lum_op_sent = 0;
  1956  042B  01D6               	clrf	_lum_op_sent	;volatile
  1957  042C                     l6610:	
  1958                           
  1959                           ;L210004 HC.c: 796: }
  1960                           ;L210004 HC.c: 797: if(!lum_op_sent){
  1961  042C  08D6               	movf	_lum_op_sent,f
  1962  042D  1D03               	skipz
  1963  042E  2C49               	goto	l6634
  1964                           
  1965                           ;L210004 HC.c: 798: tx_buffer = 'I';
  1966  042F  3049               	movlw	73
  1967                           
  1968                           ;L210004 HC.c: 799: pwr_on = 1;
  1969                           
  1970                           ;L210004 HC.c: 800: tx_flag = 1;
  1971  0430  25E7  3180         	fcall	PL6	;call to abstracted procedure
  1972                           
  1973                           ;L210004 HC.c: 801: WDTCON = 0b00100001;
  1974  0432  3021               	movlw	33
  1975  0433  0021               	movlb	1	; select bank1
  1976  0434  0097               	movwf	23	;volatile
  1977                           
  1978                           ;L210004 HC.c: 802: SWDTEN = 0;
  1979  0435  1017               	bcf	23,0
  1980                           
  1981                           ;L210004 HC.c: 803: hc_led_off();
  1982  0436  2571  3180         	fcall	_hc_led_off
  1983                           
  1984                           ;L210004 HC.c: 804: mode_state = 1;
  1985  0438  3001               	movlw	1
  1986  0439  00E8               	movwf	_mode_state	;volatile
  1987  043A  01E9               	clrf	_mode_state+1	;volatile
  1988  043B  2C49               	goto	l6634
  1989  043C                     l6624:	
  1990                           
  1991                           ;L210004 HC.c: 807: else{
  1992                           ;L210004 HC.c: 808: if(lum_op_sent){
  1993  043C  0856               	movf	_lum_op_sent,w	;volatile
  1994  043D  1903               	btfsc	3,2
  1995  043E  2C49               	goto	l6634
  1996                           
  1997                           ;L210004 HC.c: 809: tx_buffer = 'K';
  1998  043F  304B               	movlw	75
  1999  0440  00DE               	movwf	_tx_buffer	;volatile
  2000                           
  2001                           ;L210004 HC.c: 810: tx_flag = 1;
  2002  0441  01DF               	clrf	_tx_flag	;volatile
  2003  0442  0ADF               	incf	_tx_flag,f	;volatile
  2004                           
  2005                           ;L210004 HC.c: 811: WDTCON = 0b00011001;
  2006  0443  3019               	movlw	25
  2007  0444  0021               	movlb	1	; select bank1
  2008  0445  0097               	movwf	23	;volatile
  2009                           
  2010                           ;L210004 HC.c: 812: SWDTEN = 1;
  2011  0446  1417               	bsf	23,0
  2012                           
  2013                           ;L210004 HC.c: 813: lum_op_sent = 0;
  2014  0447  0020               	movlb	0	; select bank0
  2015  0448  01D6               	clrf	_lum_op_sent	;volatile
  2016  0449                     l6634:	
  2017                           
  2018                           ;L210004 HC.c: 815: }
  2019                           ;L210004 HC.c: 816: }
  2020                           ;L210004 HC.c: 818: if(lum_btn_cl){
  2021  0449  0853               	movf	_lum_btn_cl,w	;volatile
  2022  044A  1903               	btfsc	3,2
  2023  044B  2C62               	goto	l6656
  2024                           
  2025                           ;L210004 HC.c: 819: if(last_tx[0] == 'J'){
  2026  044C  0848               	movf	_last_tx,w
  2027  044D  3A4A               	xorlw	74
  2028  044E  1D03               	skipz
  2029  044F  2C53               	goto	l6640
  2030                           
  2031                           ;L210004 HC.c: 820: lum_cl_sent = 1;
  2032  0450  01D5               	clrf	_lum_cl_sent	;volatile
  2033  0451  0AD5               	incf	_lum_cl_sent,f	;volatile
  2034                           
  2035                           ;L210004 HC.c: 821: }
  2036  0452  2C54               	goto	l6642
  2037  0453                     l6640:	
  2038                           
  2039                           ;L210004 HC.c: 822: else{
  2040                           ;L210004 HC.c: 823: lum_cl_sent = 0;
  2041  0453  01D5               	clrf	_lum_cl_sent	;volatile
  2042  0454                     l6642:	
  2043                           
  2044                           ;L210004 HC.c: 824: }
  2045                           ;L210004 HC.c: 825: if(!lum_cl_sent){
  2046  0454  08D5               	movf	_lum_cl_sent,f
  2047  0455  1D03               	skipz
  2048  0456  2C69               	goto	l6666
  2049                           
  2050                           ;L210004 HC.c: 826: tx_buffer = 'J';
  2051  0457  304A               	movlw	74
  2052                           
  2053                           ;L210004 HC.c: 827: pwr_on = 1;
  2054                           
  2055                           ;L210004 HC.c: 828: tx_flag = 1;
  2056  0458  25E7  3180         	fcall	PL6	;call to abstracted procedure
  2057                           
  2058                           ;L210004 HC.c: 830: SWDTEN = 0;
  2059  045A  0021               	movlb	1	; select bank1
  2060  045B  1017               	bcf	23,0
  2061                           
  2062                           ;L210004 HC.c: 831: hc_led_off();
  2063  045C  2571  3180         	fcall	_hc_led_off
  2064                           
  2065                           ;L210004 HC.c: 832: mode_state = 1;
  2066  045E  3001               	movlw	1
  2067  045F  00E8               	movwf	_mode_state	;volatile
  2068  0460  01E9               	clrf	_mode_state+1	;volatile
  2069  0461  2C69               	goto	l6666
  2070  0462                     l6656:	
  2071                           
  2072                           ;L210004 HC.c: 835: else{
  2073                           ;L210004 HC.c: 836: if(lum_cl_sent){
  2074  0462  0855               	movf	_lum_cl_sent,w	;volatile
  2075  0463  1903               	btfsc	3,2
  2076  0464  2C69               	goto	l6666
  2077                           
  2078                           ;L210004 HC.c: 837: tx_buffer = 'K';
  2079  0465  304B               	movlw	75
  2080                           
  2081                           ;L210004 HC.c: 838: tx_flag = 1;
  2082                           
  2083                           ;L210004 HC.c: 840: SWDTEN = 1;
  2084                           
  2085                           ;L210004 HC.c: 841: lum_cl_sent = 0;
  2086  0466  25CA  3180         	fcall	PL2	;call to abstracted procedure
  2087  0468  01D5               	clrf	_lum_cl_sent	;volatile
  2088  0469                     l6666:	
  2089                           
  2090                           ;L210004 HC.c: 842: }
  2091                           ;L210004 HC.c: 843: }
  2092                           ;L210004 HC.c: 845: if(hr_btn_op){
  2093  0469  0850               	movf	_hr_btn_op,w	;volatile
  2094  046A  1903               	btfsc	3,2
  2095  046B  2C7B               	goto	l6682
  2096                           
  2097                           ;L210004 HC.c: 846: if(last_tx[0] == 'F'){
  2098  046C  0848               	movf	_last_tx,w
  2099  046D  3A46               	xorlw	70
  2100  046E  1D03               	skipz
  2101  046F  2C73               	goto	l6672
  2102                           
  2103                           ;L210004 HC.c: 847: hr_op_sent = 1;
  2104  0470  01D2               	clrf	_hr_op_sent	;volatile
  2105  0471  0AD2               	incf	_hr_op_sent,f	;volatile
  2106                           
  2107                           ;L210004 HC.c: 848: }
  2108  0472  2C74               	goto	l6674
  2109  0473                     l6672:	
  2110                           
  2111                           ;L210004 HC.c: 849: else{
  2112                           ;L210004 HC.c: 850: hr_op_sent = 0;
  2113  0473  01D2               	clrf	_hr_op_sent	;volatile
  2114  0474                     l6674:	
  2115                           
  2116                           ;L210004 HC.c: 851: }
  2117                           ;L210004 HC.c: 852: if(!hr_op_sent){
  2118  0474  08D2               	movf	_hr_op_sent,f
  2119  0475  1D03               	skipz
  2120  0476  2C82               	goto	l6692
  2121                           
  2122                           ;L210004 HC.c: 853: tx_buffer = 'F';
  2123  0477  3046               	movlw	70
  2124                           
  2125                           ;L210004 HC.c: 854: tx_flag = 1;
  2126                           
  2127                           ;L210004 HC.c: 856: SWDTEN = 0;
  2128  0478  25DB  3180         	fcall	PL4	;call to abstracted procedure
  2129  047A  2C82               	goto	l6692
  2130  047B                     l6682:	
  2131                           
  2132                           ;L210004 HC.c: 859: else{
  2133                           ;L210004 HC.c: 860: if(hr_op_sent){
  2134  047B  0852               	movf	_hr_op_sent,w	;volatile
  2135  047C  1903               	btfsc	3,2
  2136  047D  2C82               	goto	l6692
  2137                           
  2138                           ;L210004 HC.c: 861: tx_buffer = 'H';
  2139  047E  3048               	movlw	72
  2140                           
  2141                           ;L210004 HC.c: 862: tx_flag = 1;
  2142                           
  2143                           ;L210004 HC.c: 864: SWDTEN = 1;
  2144                           
  2145                           ;L210004 HC.c: 865: hr_op_sent = 0;
  2146  047F  25CA  3180         	fcall	PL2	;call to abstracted procedure
  2147  0481  01D2               	clrf	_hr_op_sent	;volatile
  2148  0482                     l6692:	
  2149                           
  2150                           ;L210004 HC.c: 866: }
  2151                           ;L210004 HC.c: 867: }
  2152                           ;L210004 HC.c: 869: if(hr_btn_cl){
  2153  0482  0020               	movlb	0	; select bank0
  2154  0483  084F               	movf	_hr_btn_cl,w	;volatile
  2155  0484  1903               	btfsc	3,2
  2156  0485  2C95               	goto	l6708
  2157                           
  2158                           ;L210004 HC.c: 870: if(last_tx[0] == 'G'){
  2159  0486  0848               	movf	_last_tx,w
  2160  0487  3A47               	xorlw	71
  2161  0488  1D03               	skipz
  2162  0489  2C8D               	goto	l6698
  2163                           
  2164                           ;L210004 HC.c: 871: hr_cl_sent = 1;
  2165  048A  01D1               	clrf	_hr_cl_sent	;volatile
  2166  048B  0AD1               	incf	_hr_cl_sent,f	;volatile
  2167                           
  2168                           ;L210004 HC.c: 872: }
  2169  048C  2C8E               	goto	l6700
  2170  048D                     l6698:	
  2171                           
  2172                           ;L210004 HC.c: 873: else{
  2173                           ;L210004 HC.c: 874: hr_cl_sent = 0;
  2174  048D  01D1               	clrf	_hr_cl_sent	;volatile
  2175  048E                     l6700:	
  2176                           
  2177                           ;L210004 HC.c: 875: }
  2178                           ;L210004 HC.c: 876: if(!hr_cl_sent){
  2179  048E  08D1               	movf	_hr_cl_sent,f
  2180  048F  1D03               	skipz
  2181  0490  2C9C               	goto	l6718
  2182                           
  2183                           ;L210004 HC.c: 877: tx_buffer = 'G';
  2184  0491  3047               	movlw	71
  2185                           
  2186                           ;L210004 HC.c: 878: tx_flag = 1;
  2187                           
  2188                           ;L210004 HC.c: 880: SWDTEN = 0;
  2189  0492  25DB  3180         	fcall	PL4	;call to abstracted procedure
  2190  0494  2C9C               	goto	l6718
  2191  0495                     l6708:	
  2192                           
  2193                           ;L210004 HC.c: 883: else{
  2194                           ;L210004 HC.c: 884: if(hr_cl_sent){
  2195  0495  0851               	movf	_hr_cl_sent,w	;volatile
  2196  0496  1903               	btfsc	3,2
  2197  0497  2C9C               	goto	l6718
  2198                           
  2199                           ;L210004 HC.c: 885: tx_buffer = 'H';
  2200  0498  3048               	movlw	72
  2201                           
  2202                           ;L210004 HC.c: 886: tx_flag = 1;
  2203                           
  2204                           ;L210004 HC.c: 888: SWDTEN = 1;
  2205                           
  2206                           ;L210004 HC.c: 889: hr_cl_sent = 0;
  2207  0499  25CA  3180         	fcall	PL2	;call to abstracted procedure
  2208  049B  01D1               	clrf	_hr_cl_sent	;volatile
  2209  049C                     l6718:	
  2210                           
  2211                           ;L210004 HC.c: 890: }
  2212                           ;L210004 HC.c: 891: }
  2213                           ;L210004 HC.c: 893: if(pr_btn_op){
  2214  049C  0020               	movlb	0	; select bank0
  2215  049D  0858               	movf	_pr_btn_op,w	;volatile
  2216  049E  1903               	btfsc	3,2
  2217  049F  2CAF               	goto	l6734
  2218                           
  2219                           ;L210004 HC.c: 894: if(last_tx[0] == 'C'){
  2220  04A0  0848               	movf	_last_tx,w
  2221  04A1  3A43               	xorlw	67
  2222  04A2  1D03               	skipz
  2223  04A3  2CA7               	goto	l6724
  2224                           
  2225                           ;L210004 HC.c: 895: pr_op_sent = 1;
  2226  04A4  01DA               	clrf	_pr_op_sent	;volatile
  2227  04A5  0ADA               	incf	_pr_op_sent,f	;volatile
  2228                           
  2229                           ;L210004 HC.c: 896: }
  2230  04A6  2CA8               	goto	l6726
  2231  04A7                     l6724:	
  2232                           
  2233                           ;L210004 HC.c: 897: else{
  2234                           ;L210004 HC.c: 898: pr_op_sent = 0;
  2235  04A7  01DA               	clrf	_pr_op_sent	;volatile
  2236  04A8                     l6726:	
  2237                           
  2238                           ;L210004 HC.c: 899: }
  2239                           ;L210004 HC.c: 900: if(!pr_op_sent){
  2240  04A8  08DA               	movf	_pr_op_sent,f
  2241  04A9  1D03               	skipz
  2242  04AA  2CB6               	goto	l6744
  2243                           
  2244                           ;L210004 HC.c: 901: tx_buffer = 'C';
  2245  04AB  3043               	movlw	67
  2246                           
  2247                           ;L210004 HC.c: 902: tx_flag = 1;
  2248                           
  2249                           ;L210004 HC.c: 904: SWDTEN = 0;
  2250  04AC  25DB  3180         	fcall	PL4	;call to abstracted procedure
  2251  04AE  2CB6               	goto	l6744
  2252  04AF                     l6734:	
  2253                           
  2254                           ;L210004 HC.c: 907: else{
  2255                           ;L210004 HC.c: 908: if(pr_op_sent){
  2256  04AF  085A               	movf	_pr_op_sent,w	;volatile
  2257  04B0  1903               	btfsc	3,2
  2258  04B1  2CB6               	goto	l6744
  2259                           
  2260                           ;L210004 HC.c: 909: tx_buffer = 'E';
  2261  04B2  3045               	movlw	69
  2262                           
  2263                           ;L210004 HC.c: 910: tx_flag = 1;
  2264                           
  2265                           ;L210004 HC.c: 912: SWDTEN = 1;
  2266                           
  2267                           ;L210004 HC.c: 913: pr_op_sent = 0;
  2268  04B3  25CA  3180         	fcall	PL2	;call to abstracted procedure
  2269  04B5  01DA               	clrf	_pr_op_sent	;volatile
  2270  04B6                     l6744:	
  2271                           
  2272                           ;L210004 HC.c: 914: }
  2273                           ;L210004 HC.c: 915: }
  2274                           ;L210004 HC.c: 917: if(pr_btn_cl){
  2275  04B6  0020               	movlb	0	; select bank0
  2276  04B7  0857               	movf	_pr_btn_cl,w	;volatile
  2277  04B8  1903               	btfsc	3,2
  2278  04B9  2CC9               	goto	l6760
  2279                           
  2280                           ;L210004 HC.c: 918: if(last_tx[0] == 'D'){
  2281  04BA  0848               	movf	_last_tx,w
  2282  04BB  3A44               	xorlw	68
  2283  04BC  1D03               	skipz
  2284  04BD  2CC1               	goto	l6750
  2285                           
  2286                           ;L210004 HC.c: 919: pr_cl_sent = 1;
  2287  04BE  01D9               	clrf	_pr_cl_sent	;volatile
  2288  04BF  0AD9               	incf	_pr_cl_sent,f	;volatile
  2289                           
  2290                           ;L210004 HC.c: 920: }
  2291  04C0  2CC2               	goto	l6752
  2292  04C1                     l6750:	
  2293                           
  2294                           ;L210004 HC.c: 921: else{
  2295                           ;L210004 HC.c: 922: pr_cl_sent = 0;
  2296  04C1  01D9               	clrf	_pr_cl_sent	;volatile
  2297  04C2                     l6752:	
  2298                           
  2299                           ;L210004 HC.c: 923: }
  2300                           ;L210004 HC.c: 924: if(!pr_cl_sent){
  2301  04C2  08D9               	movf	_pr_cl_sent,f
  2302  04C3  1D03               	skipz
  2303  04C4  2CD0               	goto	l6770
  2304                           
  2305                           ;L210004 HC.c: 925: tx_buffer = 'D';
  2306  04C5  3044               	movlw	68
  2307                           
  2308                           ;L210004 HC.c: 926: tx_flag = 1;
  2309                           
  2310                           ;L210004 HC.c: 928: SWDTEN = 0;
  2311  04C6  25DB  3180         	fcall	PL4	;call to abstracted procedure
  2312  04C8  2CD0               	goto	l6770
  2313  04C9                     l6760:	
  2314                           
  2315                           ;L210004 HC.c: 931: else{
  2316                           ;L210004 HC.c: 932: if(pr_cl_sent){
  2317  04C9  0859               	movf	_pr_cl_sent,w	;volatile
  2318  04CA  1903               	btfsc	3,2
  2319  04CB  2CD0               	goto	l6770
  2320                           
  2321                           ;L210004 HC.c: 933: tx_buffer = 'E';
  2322  04CC  3045               	movlw	69
  2323                           
  2324                           ;L210004 HC.c: 934: tx_flag = 1;
  2325                           
  2326                           ;L210004 HC.c: 936: SWDTEN = 1;
  2327                           
  2328                           ;L210004 HC.c: 937: pr_cl_sent = 0;
  2329  04CD  25CA  3180         	fcall	PL2	;call to abstracted procedure
  2330  04CF  01D9               	clrf	_pr_cl_sent	;volatile
  2331  04D0                     l6770:	
  2332                           
  2333                           ;L210004 HC.c: 938: }
  2334                           ;L210004 HC.c: 939: }
  2335                           ;L210004 HC.c: 941: if(safety < 20*7*20){
  2336  04D0  0020               	movlb	0	; select bank0
  2337  04D1  0831               	movf	main@safety+1,w
  2338  04D2  3A80               	xorlw	128
  2339  04D3  00FF               	movwf	127
  2340  04D4  308A               	movlw	138
  2341  04D5  027F               	subwf	127,w
  2342  04D6  1D03               	skipz
  2343  04D7  2CDA               	goto	u3655
  2344  04D8  30F0               	movlw	240
  2345  04D9  0230               	subwf	main@safety,w
  2346  04DA                     u3655:	
  2347  04DA  1803               	skipnc
  2348  04DB  2CE1               	goto	l6774
  2349                           
  2350                           ;L210004 HC.c: 942: ++safety;
  2351  04DC  0020               	movlb	0	; select bank0
  2352  04DD  0AB0               	incf	main@safety,f
  2353  04DE  1903               	skipnz
  2354  04DF  0AB1               	incf	main@safety+1,f
  2355                           
  2356                           ;L210004 HC.c: 946: }
  2357  04E0  2CF1               	goto	l2267
  2358  04E1                     l6774:	
  2359                           
  2360                           ;L210004 HC.c: 947: else{
  2361                           ;L210004 HC.c: 948: safety = 0;
  2362  04E1  0020               	movlb	0	; select bank0
  2363  04E2  01B0               	clrf	main@safety
  2364  04E3  01B1               	clrf	main@safety+1
  2365                           
  2366                           ;L210004 HC.c: 949: if(RE0 || RB1 || RA5 || RA4 || RB2 || RB3){
  2367  04E4  1C10               	btfss	16,0
  2368  04E5  188D               	btfsc	13,1
  2369  04E6  2CF1               	goto	l2267
  2370  04E7  1E8C               	btfss	12,5
  2371  04E8  1A0C               	btfsc	12,4
  2372  04E9  2CF1               	goto	l2267
  2373  04EA  1D0D               	btfss	13,2
  2374  04EB  198D               	btfsc	13,3
  2375  04EC  2CF1               	goto	l2267
  2376                           
  2377                           ;L210004 HC.c: 951: else{
  2378                           ;L210004 HC.c: 952: tx_buffer = 'Y';
  2379  04ED  3059               	movlw	89
  2380  04EE  00DE               	movwf	_tx_buffer	;volatile
  2381                           
  2382                           ;L210004 HC.c: 953: tx_flag = 1;
  2383  04EF  01DF               	clrf	_tx_flag	;volatile
  2384  04F0  0ADF               	incf	_tx_flag,f	;volatile
  2385  04F1                     l2267:	
  2386                           
  2387                           ;L210004 HC.c: 954: }
  2388                           ;L210004 HC.c: 955: }
  2389                           ;L210004 HC.c: 960: if(tx_flag){
  2390  04F1  085F               	movf	_tx_flag,w	;volatile
  2391  04F2  1903               	btfsc	3,2
  2392  04F3  2A59               	goto	l6200
  2393                           
  2394                           ;L210004 HC.c: 961: bool echo = 1;
  2395  04F4  01B3               	clrf	main@echo
  2396  04F5  0AB3               	incf	main@echo,f
  2397  04F6                     l6794:	
  2398                           
  2399                           ;L210004 HC.c: 963: int c = 0;
  2400  04F6  01AE               	clrf	main@c
  2401  04F7  01AF               	clrf	main@c+1
  2402                           
  2403                           ;L210004 HC.c: 964: for(unsigned int i = 0; i < (sizeof(last_tx)/sizeof((last_tx)[0])); 
      +                          ++i){
  2404  04F8  01BE               	clrf	main@i_3356
  2405  04F9  01BF               	clrf	main@i_3356+1
  2406  04FA                     l6800:	
  2407                           
  2408                           ;L210004 HC.c: 965: putch(tx_buffer);
  2409  04FA  085E               	movf	_tx_buffer,w	;volatile
  2410  04FB  254D  3180         	fcall	_putch
  2411                           
  2412                           ;L210004 HC.c: 966: last_tx[i] = tx_buffer;
  2413  04FD  0020               	movlb	0	; select bank0
  2414  04FE  083E               	movf	main@i_3356,w
  2415  04FF  3E48               	addlw	_last_tx& (0+255)
  2416  0500  0086               	movwf	6
  2417  0501  0187               	clrf	7
  2418  0502  085E               	movf	_tx_buffer,w	;volatile
  2419  0503  0081               	movwf	1
  2420                           
  2421                           ;L210004 HC.c: 967: _delay((unsigned long)((5)*(4000000/4000000.0)));
  2422  0504  2D05               	nop2	;2 cycle nop
  2423  0505  2D06               	nop2	;2 cycle nop
  2424  0506  0064               	clrwdt
  2425  0507  0020               	movlb	0	; select bank0
  2426  0508  0ABE               	incf	main@i_3356,f
  2427  0509  1903               	skipnz
  2428  050A  0ABF               	incf	main@i_3356+1,f
  2429  050B  3000               	movlw	0
  2430  050C  023F               	subwf	main@i_3356+1,w
  2431  050D  3005               	movlw	5
  2432  050E  1903               	skipnz
  2433  050F  023E               	subwf	main@i_3356,w
  2434  0510  1C03               	skipc
  2435  0511  2CFA               	goto	l6800
  2436                           
  2437                           ;L210004 HC.c: 968: }
  2438                           ;L210004 HC.c: 969: for(unsigned int i = 0; i < (sizeof(rx_char)/sizeof((rx_char)[0])); 
      +                          ++i){
  2439  0512  01C0               	clrf	main@i_3357
  2440  0513  01C1               	clrf	main@i_3357+1
  2441  0514                     l6816:	
  2442                           
  2443                           ;L210004 HC.c: 970: rx_char[i] = getch();
  2444  0514  0840               	movf	main@i_3357,w
  2445  0515  3EA0               	addlw	_rx_char& (0+255)
  2446  0516  0086               	movwf	6
  2447  0517  0187               	clrf	7
  2448  0518  258E  3180         	fcall	_getch
  2449  051A  0081               	movwf	1
  2450  051B  0064               	clrwdt	;#
  2451  051C  0020               	movlb	0	; select bank0
  2452  051D  0AC0               	incf	main@i_3357,f
  2453  051E  1903               	skipnz
  2454  051F  0AC1               	incf	main@i_3357+1,f
  2455  0520  3000               	movlw	0
  2456  0521  0241               	subwf	main@i_3357+1,w
  2457  0522  3005               	movlw	5
  2458  0523  1903               	skipnz
  2459  0524  0240               	subwf	main@i_3357,w
  2460  0525  1C03               	skipc
  2461  0526  2D14               	goto	l6816
  2462                           
  2463                           ;L210004 HC.c: 972: }
  2464                           ;L210004 HC.c: 973: for(unsigned int i = 0; i < (sizeof(last_tx)/sizeof((last_tx)[0])); 
      +                          ++i){
  2465  0527  01C6               	clrf	main@i_3358
  2466  0528  01C7               	clrf	main@i_3358+1
  2467  0529                     l6830:	
  2468                           
  2469                           ;L210004 HC.c: 974: if(last_tx[i] == rx_char[i]){
  2470  0529  0846               	movf	main@i_3358,w
  2471  052A  3EA0               	addlw	_rx_char& (0+255)
  2472  052B  0086               	movwf	6
  2473  052C  0187               	clrf	7
  2474  052D  0846               	movf	main@i_3358,w
  2475  052E  25E1  3180         	fcall	PL5	;call to abstracted procedure
  2476  0530  1903               	btfsc	3,2
  2477                           
  2478                           ;L210004 HC.c: 975: c++;
  2479  0531  0AAE               	incf	main@c,f
  2480  0532  1903               	skipnz
  2481  0533  0AAF               	incf	main@c+1,f
  2482  0534  0AC6               	incf	main@i_3358,f
  2483  0535  1903               	skipnz
  2484  0536  0AC7               	incf	main@i_3358+1,f
  2485  0537  3000               	movlw	0
  2486  0538  0247               	subwf	main@i_3358+1,w
  2487  0539  3005               	movlw	5
  2488  053A  1903               	skipnz
  2489  053B  0246               	subwf	main@i_3358,w
  2490  053C  1C03               	skipc
  2491  053D  2D29               	goto	l6830
  2492                           
  2493                           ;L210004 HC.c: 976: }
  2494                           ;L210004 HC.c: 977: }
  2495                           ;L210004 HC.c: 978: if(c == 5){
  2496  053E  082E               	movf	main@c,w
  2497  053F  3A05               	xorlw	5
  2498  0540  042F               	iorwf	main@c+1,w
  2499  0541  1D03               	skipz
  2500  0542  2D47               	goto	l6842
  2501  0543  302B               	movlw	43
  2502                           
  2503                           ;L210004 HC.c: 979: echo = 0;
  2504  0544  01B3               	clrf	main@echo
  2505                           
  2506                           ;L210004 HC.c: 980: putch('+');
  2507  0545  254D  3180         	fcall	_putch
  2508  0547                     l6842:	
  2509                           
  2510                           ;L210004 HC.c: 981: }
  2511                           ;L210004 HC.c: 982: }while(echo);
  2512  0547  0020               	movlb	0	; select bank0
  2513  0548  08B3               	movf	main@echo,f
  2514  0549  1D03               	skipz
  2515  054A  2CF6               	goto	l6794
  2516                           
  2517                           ;L210004 HC.c: 983: tx_flag = 0;
  2518  054B  01DF               	clrf	_tx_flag	;volatile
  2519  054C  2A59               	goto	l6200
  2520  054D                     __end_of_main:	
  2521  054D                     __ptext260:	
  2522 ;; =============== function _getch ends ============
  2523                           
  2524                           
  2525 ;; *************** function _putch *****************
  2526 ;; Defined at:
  2527 ;;		line 211 in file "L210004 HC.c"
  2528 ;; Parameters:    Size  Location     Type
  2529 ;;  byte            1    wreg     unsigned char 
  2530 ;; Auto vars:     Size  Location     Type
  2531 ;;  byte            1    0[COMMON] unsigned char 
  2532 ;;  count           4    1[COMMON] long 
  2533 ;; Return value:  Size  Location     Type
  2534 ;;		None               void
  2535 ;; Registers used:
  2536 ;;		wreg, status,2, status,0, btemp+1
  2537 ;; Tracked objects:
  2538 ;;		On entry : 0/0
  2539 ;;		On exit  : 1F/3
  2540 ;;		Unchanged: FFFE0/0
  2541 ;; Data sizes:     COMMON   BANK0   BANK1   BANK2   BANK3   BANK4   BANK5   BANK6
  2542 ;;      Params:         0       0       0       0       0       0       0       0
  2543 ;;      Locals:         5       0       0       0       0       0       0       0
  2544 ;;      Temps:          0       0       0       0       0       0       0       0
  2545 ;;      Totals:         5       0       0       0       0       0       0       0
  2546 ;;Total ram usage:        5 bytes
  2547 ;; Hardware stack levels used:    1
  2548 ;; Hardware stack levels required when called:    2
  2549 ;; This function calls:
  2550 ;;		Nothing
  2551 ;; This function is called by:
  2552 ;;		_main
  2553 ;;		_syn_synack_ack
  2554 ;; This function uses a non-reentrant model
  2555 ;;
  2556  054D                     _putch:	
  2557                           
  2558                           ; Regs used in _putch: [wreg+status,2+status,0+btemp+1]
  2559                           ;putch@byte stored from wreg
  2560  054D  00F0               	movwf	putch@byte
  2561                           
  2562                           ;L210004 HC.c: 212: long count = 0;
  2563  054E  01F1               	clrf	putch@count
  2564  054F  01F2               	clrf	putch@count+1
  2565  0550  01F3               	clrf	putch@count+2
  2566  0551  01F4               	clrf	putch@count+3
  2567  0552                     l2111:	
  2568                           ;L210004 HC.c: 215: while(!TXIF){
  2569                           
  2570  0552  0020               	movlb	0	; select bank0
  2571  0553  1A11               	btfsc	17,4
  2572  0554  2D6D               	goto	l5744
  2573                           
  2574                           ;L210004 HC.c: 217: count++;
  2575  0555  0AF1               	incf	putch@count,f
  2576  0556  1903               	skipnz
  2577  0557  0AF2               	incf	putch@count+1,f
  2578  0558  1903               	skipnz
  2579  0559  0AF3               	incf	putch@count+2,f
  2580  055A  1903               	skipnz
  2581  055B  0AF4               	incf	putch@count+3,f
  2582                           
  2583                           ;L210004 HC.c: 218: if(count >= 10000000){
  2584  055C  0874               	movf	putch@count+3,w
  2585  055D  25F2  3180         	fcall	PL8	;call to abstracted procedure
  2586  055F  1D03               	skipz
  2587  0560  2D6B               	goto	u1903
  2588  0561  3098               	movlw	152
  2589  0562  0273               	subwf	putch@count+2,w
  2590  0563  1D03               	skipz
  2591  0564  2D6B               	goto	u1903
  2592  0565  3096               	movlw	150
  2593  0566  0272               	subwf	putch@count+1,w
  2594  0567  1D03               	skipz
  2595  0568  2D6B               	goto	u1903
  2596  0569  3080               	movlw	128
  2597  056A  0271               	subwf	putch@count,w
  2598  056B                     u1903:	
  2599  056B  1C03               	skipc
  2600  056C  2D52               	goto	l2111
  2601  056D                     l5744:	
  2602                           
  2603                           ;L210004 HC.c: 220: }
  2604                           ;L210004 HC.c: 221: }
  2605                           ;L210004 HC.c: 222: TXREG = byte;
  2606  056D  0870               	movf	putch@byte,w
  2607  056E  0023               	movlb	3	; select bank3
  2608  056F  009A               	movwf	26	;volatile
  2609  0570  0008               	return
  2610  0571                     __end_of_putch:	
  2611  0571                     __ptext257:	
  2612 ;; =============== function _syn_synack_ack ends ============
  2613                           
  2614                           
  2615 ;; *************** function _hc_led_off *****************
  2616 ;; Defined at:
  2617 ;;		line 1111 in file "L210004 HC.c"
  2618 ;; Parameters:    Size  Location     Type
  2619 ;;		None
  2620 ;; Auto vars:     Size  Location     Type
  2621 ;;		None
  2622 ;; Return value:  Size  Location     Type
  2623 ;;		None               void
  2624 ;; Registers used:
  2625 ;;		status,2
  2626 ;; Tracked objects:
  2627 ;;		On entry : 0/0
  2628 ;;		On exit  : 1F/0
  2629 ;;		Unchanged: FFFE0/0
  2630 ;; Data sizes:     COMMON   BANK0   BANK1   BANK2   BANK3   BANK4   BANK5   BANK6
  2631 ;;      Params:         0       0       0       0       0       0       0       0
  2632 ;;      Locals:         0       0       0       0       0       0       0       0
  2633 ;;      Temps:          0       0       0       0       0       0       0       0
  2634 ;;      Totals:         0       0       0       0       0       0       0       0
  2635 ;;Total ram usage:        0 bytes
  2636 ;; Hardware stack levels used:    1
  2637 ;; Hardware stack levels required when called:    2
  2638 ;; This function calls:
  2639 ;;		Nothing
  2640 ;; This function is called by:
  2641 ;;		_main
  2642 ;;		_connection_est
  2643 ;; This function uses a non-reentrant model
  2644 ;;
  2645  0571                     _hc_led_off:	
  2646                           
  2647                           ;L210004 HC.c: 1112: LATD0 = 1;
  2648                           
  2649                           ; Regs used in _hc_led_off: [status,2]
  2650  0571  0022               	movlb	2	; select bank2
  2651  0572  140F               	bsf	15,0
  2652                           
  2653                           ;L210004 HC.c: 1113: LATC2 = 1;
  2654  0573  150E               	bsf	14,2
  2655                           
  2656                           ;L210004 HC.c: 1114: LATC1 = 1;
  2657  0574  148E               	bsf	14,1
  2658                           
  2659                           ;L210004 HC.c: 1115: LATC0 = 1;
  2660  0575  140E               	bsf	14,0
  2661                           
  2662                           ;L210004 HC.c: 1116: LATD4 = 1;
  2663  0576  160F               	bsf	15,4
  2664                           
  2665                           ;L210004 HC.c: 1117: z0_on = 1;
  2666  0577  0020               	movlb	0	; select bank0
  2667  0578  01EC               	clrf	_z0_on	;volatile
  2668  0579  0AEC               	incf	_z0_on,f	;volatile
  2669                           
  2670                           ;L210004 HC.c: 1118: z0_off = 0;
  2671  057A  01E0               	clrf	_z0_off	;volatile
  2672                           
  2673                           ;L210004 HC.c: 1119: LATD2 = 1;
  2674  057B  0022               	movlb	2	; select bank2
  2675  057C  150F               	bsf	15,2
  2676                           
  2677                           ;L210004 HC.c: 1120: z1_on = 1;
  2678  057D  0020               	movlb	0	; select bank0
  2679  057E  01EE               	clrf	_z1_on	;volatile
  2680  057F  0AEE               	incf	_z1_on,f	;volatile
  2681                           
  2682                           ;L210004 HC.c: 1121: z1_off = 0;
  2683  0580  01ED               	clrf	_z1_off	;volatile
  2684                           
  2685                           ;L210004 HC.c: 1122: LATA7 = 1;
  2686  0581  0022               	movlb	2	; select bank2
  2687  0582  178C               	bsf	12,7
  2688                           
  2689                           ;L210004 HC.c: 1123: z2_on = 1;
  2690  0583  0020               	movlb	0	; select bank0
  2691  0584  01E4               	clrf	_z2_on	;volatile
  2692  0585  0AE4               	incf	_z2_on,f	;volatile
  2693                           
  2694                           ;L210004 HC.c: 1124: z2_off = 0;
  2695  0586  01E3               	clrf	_z2_off	;volatile
  2696                           
  2697                           ;L210004 HC.c: 1125: LATC4 = 1;
  2698  0587  0022               	movlb	2	; select bank2
  2699  0588  160E               	bsf	14,4
  2700                           
  2701                           ;L210004 HC.c: 1126: z3_on = 1;
  2702  0589  0020               	movlb	0	; select bank0
  2703  058A  01EF               	clrf	_z3_on	;volatile
  2704  058B  0AEF               	incf	_z3_on,f	;volatile
  2705                           
  2706                           ;L210004 HC.c: 1127: z3_off = 0;
  2707  058C  01E6               	clrf	_z3_off	;volatile
  2708  058D  0008               	return
  2709  058E                     __end_of_hc_led_off:	
  2710  058E                     __ptext259:	
  2711 ;; =============== function _hc_led_on ends ============
  2712                           
  2713                           
  2714 ;; *************** function _getch *****************
  2715 ;; Defined at:
  2716 ;;		line 227 in file "L210004 HC.c"
  2717 ;; Parameters:    Size  Location     Type
  2718 ;;		None
  2719 ;; Auto vars:     Size  Location     Type
  2720 ;;  count           4    0[COMMON] long 
  2721 ;; Return value:  Size  Location     Type
  2722 ;;                  1    wreg      unsigned char 
  2723 ;; Registers used:
  2724 ;;		wreg, status,2, status,0, btemp+1
  2725 ;; Tracked objects:
  2726 ;;		On entry : 1C/0
  2727 ;;		On exit  : 1F/3
  2728 ;;		Unchanged: FFFE0/0
  2729 ;; Data sizes:     COMMON   BANK0   BANK1   BANK2   BANK3   BANK4   BANK5   BANK6
  2730 ;;      Params:         0       0       0       0       0       0       0       0
  2731 ;;      Locals:         4       0       0       0       0       0       0       0
  2732 ;;      Temps:          0       0       0       0       0       0       0       0
  2733 ;;      Totals:         4       0       0       0       0       0       0       0
  2734 ;;Total ram usage:        4 bytes
  2735 ;; Hardware stack levels used:    1
  2736 ;; Hardware stack levels required when called:    2
  2737 ;; This function calls:
  2738 ;;		Nothing
  2739 ;; This function is called by:
  2740 ;;		_main
  2741 ;;		_syn_synack_ack
  2742 ;; This function uses a non-reentrant model
  2743 ;;
  2744  058E                     _getch:	
  2745                           
  2746                           ;L210004 HC.c: 228: long count = 0;
  2747                           
  2748                           ; Regs used in _getch: [wreg+status,2+status,0+btemp+1]
  2749  058E  01F0               	clrf	getch@count
  2750  058F  01F1               	clrf	getch@count+1
  2751  0590  01F2               	clrf	getch@count+2
  2752  0591  01F3               	clrf	getch@count+3
  2753  0592                     l2118:	
  2754                           ;L210004 HC.c: 231: while(!RCIF){
  2755                           
  2756  0592  0020               	movlb	0	; select bank0
  2757  0593  1A91               	btfsc	17,5
  2758  0594  2DAD               	goto	l5754
  2759                           
  2760                           ;L210004 HC.c: 233: count++;
  2761  0595  0AF0               	incf	getch@count,f
  2762  0596  1903               	skipnz
  2763  0597  0AF1               	incf	getch@count+1,f
  2764  0598  1903               	skipnz
  2765  0599  0AF2               	incf	getch@count+2,f
  2766  059A  1903               	skipnz
  2767  059B  0AF3               	incf	getch@count+3,f
  2768                           
  2769                           ;L210004 HC.c: 234: if(count >= 10000000){
  2770  059C  0873               	movf	getch@count+3,w
  2771  059D  25F2  3180         	fcall	PL8	;call to abstracted procedure
  2772  059F  1D03               	skipz
  2773  05A0  2DAB               	goto	u1923
  2774  05A1  3098               	movlw	152
  2775  05A2  0272               	subwf	getch@count+2,w
  2776  05A3  1D03               	skipz
  2777  05A4  2DAB               	goto	u1923
  2778  05A5  3096               	movlw	150
  2779  05A6  0271               	subwf	getch@count+1,w
  2780  05A7  1D03               	skipz
  2781  05A8  2DAB               	goto	u1923
  2782  05A9  3080               	movlw	128
  2783  05AA  0270               	subwf	getch@count,w
  2784  05AB                     u1923:	
  2785  05AB  1C03               	skipc
  2786  05AC  2D92               	goto	l2118
  2787  05AD                     l5754:	
  2788                           
  2789                           ;L210004 HC.c: 236: }
  2790                           ;L210004 HC.c: 237: }
  2791                           ;L210004 HC.c: 239: return RCREG;
  2792  05AD  0023               	movlb	3	; select bank3
  2793  05AE  0819               	movf	25,w	;volatile
  2794  05AF  0008               	return
  2795  05B0                     __end_of_getch:	
  2796  05B0                     __ptext258:	
  2797 ;; =============== function _hc_led_off ends ============
  2798                           
  2799                           
  2800 ;; *************** function _hc_led_on *****************
  2801 ;; Defined at:
  2802 ;;		line 1095 in file "L210004 HC.c"
  2803 ;; Parameters:    Size  Location     Type
  2804 ;;		None
  2805 ;; Auto vars:     Size  Location     Type
  2806 ;;		None
  2807 ;; Return value:  Size  Location     Type
  2808 ;;		None               void
  2809 ;; Registers used:
  2810 ;;		status,2
  2811 ;; Tracked objects:
  2812 ;;		On entry : 0/0
  2813 ;;		On exit  : 1F/0
  2814 ;;		Unchanged: FFFE0/0
  2815 ;; Data sizes:     COMMON   BANK0   BANK1   BANK2   BANK3   BANK4   BANK5   BANK6
  2816 ;;      Params:         0       0       0       0       0       0       0       0
  2817 ;;      Locals:         0       0       0       0       0       0       0       0
  2818 ;;      Temps:          0       0       0       0       0       0       0       0
  2819 ;;      Totals:         0       0       0       0       0       0       0       0
  2820 ;;Total ram usage:        0 bytes
  2821 ;; Hardware stack levels used:    1
  2822 ;; Hardware stack levels required when called:    2
  2823 ;; This function calls:
  2824 ;;		Nothing
  2825 ;; This function is called by:
  2826 ;;		_main
  2827 ;;		_connection_est
  2828 ;; This function uses a non-reentrant model
  2829 ;;
  2830  05B0                     _hc_led_on:	
  2831                           
  2832                           ;L210004 HC.c: 1096: LATD0 = 0;
  2833                           
  2834                           ; Regs used in _hc_led_on: [status,2]
  2835  05B0  0022               	movlb	2	; select bank2
  2836  05B1  100F               	bcf	15,0
  2837                           
  2838                           ;L210004 HC.c: 1097: LATD4 = 0;
  2839  05B2  120F               	bcf	15,4
  2840                           
  2841                           ;L210004 HC.c: 1098: z0_off = 1;
  2842  05B3  0020               	movlb	0	; select bank0
  2843  05B4  01E0               	clrf	_z0_off	;volatile
  2844  05B5  0AE0               	incf	_z0_off,f	;volatile
  2845                           
  2846                           ;L210004 HC.c: 1099: z0_on = 0;
  2847  05B6  01EC               	clrf	_z0_on	;volatile
  2848                           
  2849                           ;L210004 HC.c: 1100: LATD2 = 0;
  2850  05B7  0022               	movlb	2	; select bank2
  2851  05B8  110F               	bcf	15,2
  2852                           
  2853                           ;L210004 HC.c: 1101: z1_off = 1;
  2854  05B9  0020               	movlb	0	; select bank0
  2855  05BA  01ED               	clrf	_z1_off	;volatile
  2856  05BB  0AED               	incf	_z1_off,f	;volatile
  2857                           
  2858                           ;L210004 HC.c: 1102: z1_on = 0;
  2859  05BC  01EE               	clrf	_z1_on	;volatile
  2860                           
  2861                           ;L210004 HC.c: 1103: LATA7 = 0;
  2862  05BD  0022               	movlb	2	; select bank2
  2863  05BE  138C               	bcf	12,7
  2864                           
  2865                           ;L210004 HC.c: 1104: z2_off = 1;
  2866  05BF  0020               	movlb	0	; select bank0
  2867  05C0  01E3               	clrf	_z2_off	;volatile
  2868  05C1  0AE3               	incf	_z2_off,f	;volatile
  2869                           
  2870                           ;L210004 HC.c: 1105: z2_on = 0;
  2871  05C2  01E4               	clrf	_z2_on	;volatile
  2872                           
  2873                           ;L210004 HC.c: 1106: LATC4 = 0;
  2874  05C3  0022               	movlb	2	; select bank2
  2875  05C4  120E               	bcf	14,4
  2876                           
  2877                           ;L210004 HC.c: 1107: z3_off = 1;
  2878  05C5  0020               	movlb	0	; select bank0
  2879  05C6  01E6               	clrf	_z3_off	;volatile
  2880  05C7  0AE6               	incf	_z3_off,f	;volatile
  2881                           
  2882                           ;L210004 HC.c: 1108: z3_on = 0;
  2883  05C8  01EF               	clrf	_z3_on	;volatile
  2884  05C9  0008               	return
  2885  05CA                     __end_of_hc_led_on:	
  2886  05CA                     PL2:	
  2887  05CA  00DE               	movwf	_tx_buffer	;volatile
  2888  05CB  01DF               	clrf	_tx_flag	;volatile
  2889  05CC  0ADF               	incf	_tx_flag,f	;volatile
  2890  05CD  0021               	movlb	1	; select bank1
  2891  05CE  1417               	bsf	23,0
  2892  05CF  0020               	movlb	0	; select bank0
  2893  05D0  0008               	return
  2894  05D1                     PL3:	
  2895  05D1  0022               	movlb	2	; select bank2
  2896  05D2  158C               	bsf	12,3
  2897  05D3  0020               	movlb	0	; select bank0
  2898  05D4  01EA               	clrf	_heat_on	;volatile
  2899  05D5  0AEA               	incf	_heat_on,f	;volatile
  2900  05D6  01CD               	clrf	_heat_off	;volatile
  2901  05D7  01DC               	clrf	_pwr_off	;volatile
  2902  05D8  01EB               	clrf	_pwr_on	;volatile
  2903  05D9  0AEB               	incf	_pwr_on,f	;volatile
  2904  05DA  0008               	return
  2905  05DB                     PL4:	
  2906  05DB  00DE               	movwf	_tx_buffer	;volatile
  2907  05DC  01DF               	clrf	_tx_flag	;volatile
  2908  05DD  0ADF               	incf	_tx_flag,f	;volatile
  2909  05DE  0021               	movlb	1	; select bank1
  2910  05DF  1017               	bcf	23,0
  2911  05E0  0008               	return
  2912  05E1                     PL5:	
  2913  05E1  3E48               	addlw	_last_tx& (0+255)
  2914  05E2  0084               	movwf	4
  2915  05E3  0185               	clrf	5
  2916  05E4  0800               	movf	0,w
  2917  05E5  0601               	xorwf	1,w
  2918  05E6  0008               	return
  2919  05E7                     PL6:	
  2920  05E7  00DE               	movwf	_tx_buffer	;volatile
  2921  05E8  01EB               	clrf	_pwr_on	;volatile
  2922  05E9  0AEB               	incf	_pwr_on,f	;volatile
  2923  05EA  01DF               	clrf	_tx_flag	;volatile
  2924  05EB  0ADF               	incf	_tx_flag,f	;volatile
  2925  05EC  0008               	return
  2926  05ED                     PL7:	
  2927  05ED  3048               	movlw	72
  2928  05EE  00FC               	movwf	_massage_timeout	;volatile
  2929  05EF  308A               	movlw	138
  2930  05F0  00FD               	movwf	_massage_timeout+1	;volatile
  2931  05F1  0008               	return
  2932  05F2                     PL8:	
  2933  05F2  3A80               	xorlw	128
  2934  05F3  00FF               	movwf	127
  2935  05F4  3080               	movlw	128
  2936  05F5  027F               	subwf	127,w
  2937  05F6  0008               	return
  2938                           
  2939                           	psect	bssCOMMON
  2940  007A                     __pbssCOMMON:	
  2941  007A                     _heat_timeout:	
  2942  007A                     	ds	2
  2943  007C                     _massage_timeout:	
  2944  007C                     	ds	2
  2945                           
  2946                           	psect	bssBANK0
  2947  0048                     __pbssBANK0:	
  2948  0048                     _last_tx:	
  2949  0048                     	ds	5
  2950  004D                     _heat_off:	
  2951  004D                     	ds	1
  2952  004E                     _heat_sent:	
  2953  004E                     	ds	1
  2954  004F                     _hr_btn_cl:	
  2955  004F                     	ds	1
  2956  0050                     _hr_btn_op:	
  2957  0050                     	ds	1
  2958  0051                     _hr_cl_sent:	
  2959  0051                     	ds	1
  2960  0052                     _hr_op_sent:	
  2961  0052                     	ds	1
  2962  0053                     _lum_btn_cl:	
  2963  0053                     	ds	1
  2964  0054                     _lum_btn_op:	
  2965  0054                     	ds	1
  2966  0055                     _lum_cl_sent:	
  2967  0055                     	ds	1
  2968  0056                     _lum_op_sent:	
  2969  0056                     	ds	1
  2970  0057                     _pr_btn_cl:	
  2971  0057                     	ds	1
  2972  0058                     _pr_btn_op:	
  2973  0058                     	ds	1
  2974  0059                     _pr_cl_sent:	
  2975  0059                     	ds	1
  2976  005A                     _pr_op_sent:	
  2977  005A                     	ds	1
  2978  005B                     _pwr_btn_flg:	
  2979  005B                     	ds	1
  2980  005C                     _pwr_off:	
  2981  005C                     	ds	1
  2982  005D                     _pwr_sent:	
  2983  005D                     	ds	1
  2984  005E                     _tx_buffer:	
  2985  005E                     	ds	1
  2986  005F                     _tx_flag:	
  2987  005F                     	ds	1
  2988  0060                     _z0_off:	
  2989  0060                     	ds	1
  2990  0061                     _z0_sent:	
  2991  0061                     	ds	1
  2992  0062                     _z1_sent:	
  2993  0062                     	ds	1
  2994  0063                     _z2_off:	
  2995  0063                     	ds	1
  2996  0064                     _z2_on:	
  2997  0064                     	ds	1
  2998  0065                     _z2_sent:	
  2999  0065                     	ds	1
  3000  0066                     _z3_off:	
  3001  0066                     	ds	1
  3002  0067                     _z3_sent:	
  3003  0067                     	ds	1
  3004                           
  3005                           	psect	dataBANK0
  3006  0068                     __pdataBANK0:	
  3007  0068                     _mode_state:	
  3008  0068                     	ds	2
  3009  006A                     _heat_on:	
  3010  006A                     	ds	1
  3011  006B                     _pwr_on:	
  3012  006B                     	ds	1
  3013  006C                     _z0_on:	
  3014  006C                     	ds	1
  3015  006D                     _z1_off:	
  3016  006D                     	ds	1
  3017  006E                     _z1_on:	
  3018  006E                     	ds	1
  3019  006F                     _z3_on:	
  3020  006F                     	ds	1
  3021                           
  3022                           	psect	bssBANK1
  3023  00A0                     __pbssBANK1:	
  3024  00A0                     _rx_char:	
  3025  00A0                     	ds	5
  3026  00A5                     _pwr_flg:	
  3027  00A5                     	ds	1
  3028                           
  3029                           	psect	dataBANK1
  3030  00A6                     __pdataBANK1:	
  3031  00A6                     _time_out:	
  3032  00A6                     	ds	2
  3033                           
  3034                           	psect	clrtext
  3035  0614                     clear_ram:	
  3036                           ;	Called with FSR0 containing the base address, and
  3037                           ;	WREG with the size to clear
  3038                           
  3039  0614  0064               	clrwdt	;clear the watchdog before getting into this loop
  3040  0615                     clrloop:	
  3041  0615  0180               	clrf	0	;clear RAM location pointed to by FSR
  3042  0616  3101               	addfsr 0,1
  3043  0617  0B89               	decfsz	9,f	;Have we reached the end of clearing yet?
  3044  0618  2E15               	goto	clrloop	;have we reached the end yet?
  3045  0619  3400               	retlw	0	;all done for this memory range, return
  3046                           
  3047                           	psect	cstackCOMMON
  3048  0070                     __pcstackCOMMON:	
  3049  0070                     ?_connection_est:	
  3050  0070                     ??_connection_est:	
  3051                           ; 0 bytes @ 0x0
  3052                           
  3053  0070                     ?_hc_led_on:	
  3054                           ; 0 bytes @ 0x0
  3055                           
  3056  0070                     ??_hc_led_on:	
  3057                           ; 0 bytes @ 0x0
  3058                           
  3059  0070                     ?_hc_led_off:	
  3060                           ; 0 bytes @ 0x0
  3061                           
  3062  0070                     ??_hc_led_off:	
  3063                           ; 0 bytes @ 0x0
  3064                           
  3065  0070                     ?_putch:	
  3066                           ; 0 bytes @ 0x0
  3067                           
  3068  0070                     ??_putch:	
  3069                           ; 0 bytes @ 0x0
  3070                           
  3071  0070                     ??_getch:	
  3072                           ; 0 bytes @ 0x0
  3073                           
  3074  0070                     ?_main:	
  3075                           ; 0 bytes @ 0x0
  3076                           
  3077  0070                     ?_isr:	
  3078                           ; 0 bytes @ 0x0
  3079                           
  3080  0070                     ??_isr:	
  3081                           ; 0 bytes @ 0x0
  3082                           
  3083  0070                     ?i1_hc_led_off:	
  3084                           ; 0 bytes @ 0x0
  3085                           
  3086  0070                     ??i1_hc_led_off:	
  3087                           ; 0 bytes @ 0x0
  3088                           
  3089  0070                     ?_syn_synack_ack:	
  3090                           ; 0 bytes @ 0x0
  3091                           
  3092  0070                     ?_getch:	
  3093                           ; 1 bytes @ 0x0
  3094                           
  3095  0070                     putch@byte:	
  3096                           ; 1 bytes @ 0x0
  3097                           
  3098  0070                     getch@count:	
  3099                           ; 1 bytes @ 0x0
  3100                           
  3101                           
  3102                           ; 4 bytes @ 0x0
  3103  0070                     	ds	1
  3104  0071                     putch@count:	
  3105                           
  3106                           ; 4 bytes @ 0x1
  3107  0071                     	ds	1
  3108  0072                     connection_est@i:	
  3109                           
  3110                           ; 2 bytes @ 0x2
  3111  0072                     	ds	3
  3112  0075                     ??_syn_synack_ack:	
  3113  0075                     syn_synack_ack@c:	
  3114                           ; 0 bytes @ 0x5
  3115                           
  3116                           
  3117                           ; 1 bytes @ 0x5
  3118  0075                     	ds	1
  3119  0076                     syn_synack_ack@echo:	
  3120                           
  3121                           ; 1 bytes @ 0x6
  3122  0076                     	ds	1
  3123  0077                     ??_main:	
  3124                           
  3125                           ; 0 bytes @ 0x7
  3126  0077                     	ds	3
  3127                           
  3128                           	psect	cstackBANK0
  3129  0020                     __pcstackBANK0:	
  3130  0020                     main@z0_de:	
  3131                           
  3132                           ; 2 bytes @ 0x0
  3133  0020                     	ds	2
  3134  0022                     main@z1_de:	
  3135                           
  3136                           ; 2 bytes @ 0x2
  3137  0022                     	ds	2
  3138  0024                     main@z2_de:	
  3139                           
  3140                           ; 2 bytes @ 0x4
  3141  0024                     	ds	2
  3142  0026                     main@z3_de:	
  3143                           
  3144                           ; 2 bytes @ 0x6
  3145  0026                     	ds	2
  3146  0028                     main@heat_de:	
  3147                           
  3148                           ; 2 bytes @ 0x8
  3149  0028                     	ds	2
  3150  002A                     main@mode_de:	
  3151                           
  3152                           ; 2 bytes @ 0xA
  3153  002A                     	ds	2
  3154  002C                     main@power_de:	
  3155                           
  3156                           ; 2 bytes @ 0xC
  3157  002C                     	ds	2
  3158  002E                     main@c:	
  3159                           
  3160                           ; 2 bytes @ 0xE
  3161  002E                     	ds	2
  3162  0030                     main@safety:	
  3163                           
  3164                           ; 2 bytes @ 0x10
  3165  0030                     	ds	2
  3166  0032                     main@connect_ack:	
  3167                           
  3168                           ; 1 bytes @ 0x12
  3169  0032                     	ds	1
  3170  0033                     main@echo:	
  3171                           
  3172                           ; 1 bytes @ 0x13
  3173  0033                     	ds	1
  3174  0034                     main@x:	
  3175                           
  3176                           ; 2 bytes @ 0x14
  3177  0034                     	ds	2
  3178  0036                     main@i:	
  3179                           
  3180                           ; 2 bytes @ 0x16
  3181  0036                     	ds	2
  3182  0038                     main@i_3349:	
  3183                           
  3184                           ; 2 bytes @ 0x18
  3185  0038                     	ds	2
  3186  003A                     main@i_3351:	
  3187                           
  3188                           ; 2 bytes @ 0x1A
  3189  003A                     	ds	2
  3190  003C                     main@i_3352:	
  3191                           
  3192                           ; 2 bytes @ 0x1C
  3193  003C                     	ds	2
  3194  003E                     main@i_3356:	
  3195                           
  3196                           ; 2 bytes @ 0x1E
  3197  003E                     	ds	2
  3198  0040                     main@i_3357:	
  3199                           
  3200                           ; 2 bytes @ 0x20
  3201  0040                     	ds	2
  3202  0042                     main@i_3350:	
  3203                           
  3204                           ; 2 bytes @ 0x22
  3205  0042                     	ds	2
  3206  0044                     main@i_3353:	
  3207                           
  3208                           ; 2 bytes @ 0x24
  3209  0044                     	ds	2
  3210  0046                     main@i_3358:	
  3211                           
  3212                           ; 2 bytes @ 0x26
  3213  0046                     	ds	2
  3214                           
  3215                           	psect	intentry
  3216  0004                     __pintentry:	
  3217 ;; =============== function _putch ends ============
  3218                           
  3219                           
  3220 ;; *************** function _isr *****************
  3221 ;; Defined at:
  3222 ;;		line 988 in file "L210004 HC.c"
  3223 ;; Parameters:    Size  Location     Type
  3224 ;;		None
  3225 ;; Auto vars:     Size  Location     Type
  3226 ;;		None
  3227 ;; Return value:  Size  Location     Type
  3228 ;;		None               void
  3229 ;; Registers used:
  3230 ;;		wreg, status,2, status,0, pclath, cstack
  3231 ;; Tracked objects:
  3232 ;;		On entry : 0/0
  3233 ;;		On exit  : 0/0
  3234 ;;		Unchanged: FFFE0/0
  3235 ;; Data sizes:     COMMON   BANK0   BANK1   BANK2   BANK3   BANK4   BANK5   BANK6
  3236 ;;      Params:         0       0       0       0       0       0       0       0
  3237 ;;      Locals:         0       0       0       0       0       0       0       0
  3238 ;;      Temps:          0       0       0       0       0       0       0       0
  3239 ;;      Totals:         0       0       0       0       0       0       0       0
  3240 ;;Total ram usage:        0 bytes
  3241 ;; Hardware stack levels used:    1
  3242 ;; Hardware stack levels required when called:    1
  3243 ;; This function calls:
  3244 ;;		i1_hc_led_off
  3245 ;; This function is called by:
  3246 ;;		Interrupt level 1
  3247 ;; This function uses a non-reentrant model
  3248 ;;
  3249  0004                     _isr:	
  3250                           
  3251                           ; Regs used in _isr: [wreg+status,2+status,0+pclath+cstack]
  3252  0004  3180               	pagesel	$
  3253                           
  3254                           ;L210004 HC.c: 989: if(TMR0IF){
  3255  0005  1D0B               	btfss	11,2
  3256  0006  0009               	retfie
  3257                           
  3258                           ;L210004 HC.c: 1002: if(RE0){
  3259  0007  0020               	movlb	0	; select bank0
  3260  0008  1C10               	btfss	16,0
  3261  0009  281F               	goto	i1l5818
  3262                           
  3263                           ;L210004 HC.c: 1003: if(RB1 || RA5 || RA4 || RB2 || RB3 ||
  3264                           ;L210004 HC.c: 1004: RD5 || RD3 || RA6 || RC5 || RB4 || RC3 || RD1){
  3265  000A  1C8D               	btfss	13,1
  3266  000B  1A8C               	btfsc	12,5
  3267  000C  2820               	goto	i1l5820
  3268  000D  1E0C               	btfss	12,4
  3269  000E  190D               	btfsc	13,2
  3270  000F  2820               	goto	i1l5820
  3271  0010  1D8D               	btfss	13,3
  3272  0011  1A8F               	btfsc	15,5
  3273  0012  2820               	goto	i1l5820
  3274  0013  1D8F               	btfss	15,3
  3275  0014  1B0C               	btfsc	12,6
  3276  0015  2820               	goto	i1l5820
  3277  0016  1E8E               	btfss	14,5
  3278  0017  1A0D               	btfsc	13,4
  3279  0018  2820               	goto	i1l5820
  3280  0019  1D8E               	btfss	14,3
  3281  001A  188F               	btfsc	15,1
  3282  001B  2820               	goto	i1l5820
  3283                           
  3284                           ;L210004 HC.c: 1006: else{
  3285                           ;L210004 HC.c: 1007: lum_btn_op = 1;
  3286  001C  01D4               	clrf	_lum_btn_op	;volatile
  3287  001D  0AD4               	incf	_lum_btn_op,f	;volatile
  3288  001E  2820               	goto	i1l5820
  3289  001F                     i1l5818:	
  3290                           
  3291                           ;L210004 HC.c: 1010: else{
  3292                           ;L210004 HC.c: 1011: lum_btn_op = 0;
  3293  001F  01D4               	clrf	_lum_btn_op	;volatile
  3294  0020                     i1l5820:	
  3295                           
  3296                           ;L210004 HC.c: 1012: }
  3297                           ;L210004 HC.c: 1014: if(RB1){
  3298  0020  1C8D               	btfss	13,1
  3299  0021  2837               	goto	i1l5846
  3300                           
  3301                           ;L210004 HC.c: 1015: if(RE0 || RA5 || RA4 || RB2 || RB3 ||
  3302                           ;L210004 HC.c: 1016: RD5 || RD3 || RA6 || RC5 || RB4 || RC3 || RD1){
  3303  0022  1C10               	btfss	16,0
  3304  0023  1A8C               	btfsc	12,5
  3305  0024  2838               	goto	i1l5848
  3306  0025  1E0C               	btfss	12,4
  3307  0026  190D               	btfsc	13,2
  3308  0027  2838               	goto	i1l5848
  3309  0028  1D8D               	btfss	13,3
  3310  0029  1A8F               	btfsc	15,5
  3311  002A  2838               	goto	i1l5848
  3312  002B  1D8F               	btfss	15,3
  3313  002C  1B0C               	btfsc	12,6
  3314  002D  2838               	goto	i1l5848
  3315  002E  1E8E               	btfss	14,5
  3316  002F  1A0D               	btfsc	13,4
  3317  0030  2838               	goto	i1l5848
  3318  0031  1D8E               	btfss	14,3
  3319  0032  188F               	btfsc	15,1
  3320  0033  2838               	goto	i1l5848
  3321                           
  3322                           ;L210004 HC.c: 1018: else{
  3323                           ;L210004 HC.c: 1019: lum_btn_cl = 1;
  3324  0034  01D3               	clrf	_lum_btn_cl	;volatile
  3325  0035  0AD3               	incf	_lum_btn_cl,f	;volatile
  3326  0036  2838               	goto	i1l5848
  3327  0037                     i1l5846:	
  3328                           
  3329                           ;L210004 HC.c: 1022: else{
  3330                           ;L210004 HC.c: 1023: lum_btn_cl = 0;
  3331  0037  01D3               	clrf	_lum_btn_cl	;volatile
  3332  0038                     i1l5848:	
  3333                           
  3334                           ;L210004 HC.c: 1024: }
  3335                           ;L210004 HC.c: 1026: if(RA5){
  3336  0038  1E8C               	btfss	12,5
  3337  0039  284F               	goto	i1l5874
  3338                           
  3339                           ;L210004 HC.c: 1027: if(RB2 || RA4 || RB3 || RE0 || RB1 ||
  3340                           ;L210004 HC.c: 1028: RD5 || RD3 || RA6 || RC5 || RB4 || RC3 || RD1){
  3341  003A  1D0D               	btfss	13,2
  3342  003B  1A0C               	btfsc	12,4
  3343  003C  2850               	goto	i1l5876
  3344  003D  1D8D               	btfss	13,3
  3345  003E  1810               	btfsc	16,0
  3346  003F  2850               	goto	i1l5876
  3347  0040  1C8D               	btfss	13,1
  3348  0041  1A8F               	btfsc	15,5
  3349  0042  2850               	goto	i1l5876
  3350  0043  1D8F               	btfss	15,3
  3351  0044  1B0C               	btfsc	12,6
  3352  0045  2850               	goto	i1l5876
  3353  0046  1E8E               	btfss	14,5
  3354  0047  1A0D               	btfsc	13,4
  3355  0048  2850               	goto	i1l5876
  3356  0049  1D8E               	btfss	14,3
  3357  004A  188F               	btfsc	15,1
  3358  004B  2850               	goto	i1l5876
  3359                           
  3360                           ;L210004 HC.c: 1030: else{
  3361                           ;L210004 HC.c: 1031: pr_btn_op = 1;
  3362  004C  01D8               	clrf	_pr_btn_op	;volatile
  3363  004D  0AD8               	incf	_pr_btn_op,f	;volatile
  3364  004E  2850               	goto	i1l5876
  3365  004F                     i1l5874:	
  3366                           
  3367                           ;L210004 HC.c: 1034: else{
  3368                           ;L210004 HC.c: 1035: pr_btn_op = 0;
  3369  004F  01D8               	clrf	_pr_btn_op	;volatile
  3370  0050                     i1l5876:	
  3371                           
  3372                           ;L210004 HC.c: 1036: }
  3373                           ;L210004 HC.c: 1038: if(RB2){
  3374  0050  1D0D               	btfss	13,2
  3375  0051  2867               	goto	i1l5902
  3376                           
  3377                           ;L210004 HC.c: 1039: if(RA5 || RA4 || RB3 || RE0 || RB1 ||
  3378                           ;L210004 HC.c: 1040: RD5 || RD3 || RA6 || RC5 || RB4 || RC3 || RD1){
  3379  0052  1E8C               	btfss	12,5
  3380  0053  1A0C               	btfsc	12,4
  3381  0054  2868               	goto	i1l5904
  3382  0055  1D8D               	btfss	13,3
  3383  0056  1810               	btfsc	16,0
  3384  0057  2868               	goto	i1l5904
  3385  0058  1C8D               	btfss	13,1
  3386  0059  1A8F               	btfsc	15,5
  3387  005A  2868               	goto	i1l5904
  3388  005B  1D8F               	btfss	15,3
  3389  005C  1B0C               	btfsc	12,6
  3390  005D  2868               	goto	i1l5904
  3391  005E  1E8E               	btfss	14,5
  3392  005F  1A0D               	btfsc	13,4
  3393  0060  2868               	goto	i1l5904
  3394  0061  1D8E               	btfss	14,3
  3395  0062  188F               	btfsc	15,1
  3396  0063  2868               	goto	i1l5904
  3397                           
  3398                           ;L210004 HC.c: 1042: else{
  3399                           ;L210004 HC.c: 1043: pr_btn_cl = 1;
  3400  0064  01D7               	clrf	_pr_btn_cl	;volatile
  3401  0065  0AD7               	incf	_pr_btn_cl,f	;volatile
  3402  0066  2868               	goto	i1l5904
  3403  0067                     i1l5902:	
  3404                           
  3405                           ;L210004 HC.c: 1046: else{
  3406                           ;L210004 HC.c: 1047: pr_btn_cl = 0;
  3407  0067  01D7               	clrf	_pr_btn_cl	;volatile
  3408  0068                     i1l5904:	
  3409                           
  3410                           ;L210004 HC.c: 1048: }
  3411                           ;L210004 HC.c: 1050: if(RA4){
  3412  0068  1E0C               	btfss	12,4
  3413  0069  287F               	goto	i1l5930
  3414                           
  3415                           ;L210004 HC.c: 1051: if(RB3 || RA5 || RB2 || RE0 || RB1 ||
  3416                           ;L210004 HC.c: 1052: RD5 || RD3 || RA6 || RC5 || RB4 || RC3 || RD1){
  3417  006A  1D8D               	btfss	13,3
  3418  006B  1A8C               	btfsc	12,5
  3419  006C  2880               	goto	i1l5932
  3420  006D  1D0D               	btfss	13,2
  3421  006E  1810               	btfsc	16,0
  3422  006F  2880               	goto	i1l5932
  3423  0070  1C8D               	btfss	13,1
  3424  0071  1A8F               	btfsc	15,5
  3425  0072  2880               	goto	i1l5932
  3426  0073  1D8F               	btfss	15,3
  3427  0074  1B0C               	btfsc	12,6
  3428  0075  2880               	goto	i1l5932
  3429  0076  1E8E               	btfss	14,5
  3430  0077  1A0D               	btfsc	13,4
  3431  0078  2880               	goto	i1l5932
  3432  0079  1D8E               	btfss	14,3
  3433  007A  188F               	btfsc	15,1
  3434  007B  2880               	goto	i1l5932
  3435                           
  3436                           ;L210004 HC.c: 1054: else{
  3437                           ;L210004 HC.c: 1055: hr_btn_op = 1;
  3438  007C  01D0               	clrf	_hr_btn_op	;volatile
  3439  007D  0AD0               	incf	_hr_btn_op,f	;volatile
  3440  007E  2880               	goto	i1l5932
  3441  007F                     i1l5930:	
  3442                           
  3443                           ;L210004 HC.c: 1058: else{
  3444                           ;L210004 HC.c: 1059: hr_btn_op = 0;
  3445  007F  01D0               	clrf	_hr_btn_op	;volatile
  3446  0080                     i1l5932:	
  3447                           
  3448                           ;L210004 HC.c: 1060: }
  3449                           ;L210004 HC.c: 1062: if(RB3){
  3450  0080  1D8D               	btfss	13,3
  3451  0081  2897               	goto	i1l5958
  3452                           
  3453                           ;L210004 HC.c: 1063: if(RA4 || RA5 || RB2 || RE0 || RB1 ||
  3454                           ;L210004 HC.c: 1064: RD5 || RD3 || RA6 || RC5 || RB4 || RC3 || RD1){
  3455  0082  1E0C               	btfss	12,4
  3456  0083  1A8C               	btfsc	12,5
  3457  0084  2898               	goto	i1l5960
  3458  0085  1D0D               	btfss	13,2
  3459  0086  1810               	btfsc	16,0
  3460  0087  2898               	goto	i1l5960
  3461  0088  1C8D               	btfss	13,1
  3462  0089  1A8F               	btfsc	15,5
  3463  008A  2898               	goto	i1l5960
  3464  008B  1D8F               	btfss	15,3
  3465  008C  1B0C               	btfsc	12,6
  3466  008D  2898               	goto	i1l5960
  3467  008E  1E8E               	btfss	14,5
  3468  008F  1A0D               	btfsc	13,4
  3469  0090  2898               	goto	i1l5960
  3470  0091  1D8E               	btfss	14,3
  3471  0092  188F               	btfsc	15,1
  3472  0093  2898               	goto	i1l5960
  3473                           
  3474                           ;L210004 HC.c: 1066: else{
  3475                           ;L210004 HC.c: 1067: hr_btn_cl = 1;
  3476  0094  01CF               	clrf	_hr_btn_cl	;volatile
  3477  0095  0ACF               	incf	_hr_btn_cl,f	;volatile
  3478  0096  2898               	goto	i1l5960
  3479  0097                     i1l5958:	
  3480                           
  3481                           ;L210004 HC.c: 1070: else{
  3482                           ;L210004 HC.c: 1071: hr_btn_cl = 0;
  3483  0097  01CF               	clrf	_hr_btn_cl	;volatile
  3484  0098                     i1l5960:	
  3485                           
  3486                           ;L210004 HC.c: 1072: }
  3487                           ;L210004 HC.c: 1074: if(!(--time_out)){
  3488  0098  30FF               	movlw	-1
  3489  0099  0021               	movlb	1	; select bank1
  3490  009A  07A6               	addwf	_time_out^(0+128),f	;volatile
  3491  009B  1C03               	skipc
  3492  009C  03A7               	decf	(_time_out+1)^(0+128),f	;volatile
  3493  009D  0827               	movf	(_time_out+1)^(0+128),w	;volatile
  3494  009E  0426               	iorwf	_time_out^(0+128),w	;volatile
  3495  009F  1D03               	skipz
  3496  00A0  28CA               	goto	i1l5980
  3497                           
  3498                           ;L210004 HC.c: 1075: time_out = 200;
  3499  00A1  30C8               	movlw	200
  3500  00A2  00A6               	movwf	_time_out^(0+128)	;volatile
  3501  00A3  01A7               	clrf	(_time_out+1)^(0+128)	;volatile
  3502                           
  3503                           ;L210004 HC.c: 1076: if(massage_timeout){
  3504  00A4  087D               	movf	_massage_timeout+1,w	;volatile
  3505  00A5  047C               	iorwf	_massage_timeout,w	;volatile
  3506  00A6  1903               	skipnz
  3507  00A7  28B8               	goto	i1l5972
  3508                           
  3509                           ;L210004 HC.c: 1077: if(!(--massage_timeout)){
  3510  00A8  30FF               	movlw	-1
  3511  00A9  07FC               	addwf	_massage_timeout,f	;volatile
  3512  00AA  1C03               	skipc
  3513  00AB  03FD               	decf	_massage_timeout+1,f	;volatile
  3514  00AC  087D               	movf	_massage_timeout+1,w	;volatile
  3515  00AD  047C               	iorwf	_massage_timeout,w	;volatile
  3516  00AE  1D03               	skipz
  3517  00AF  28B8               	goto	i1l5972
  3518                           
  3519                           ;L210004 HC.c: 1078: hc_led_off();
  3520  00B0  3185  25F7  3180   	fcall	i1_hc_led_off
  3521                           
  3522                           ;L210004 HC.c: 1079: pwr_on = 1;
  3523  00B3  01EB               	clrf	_pwr_on	;volatile
  3524  00B4  0AEB               	incf	_pwr_on,f	;volatile
  3525                           
  3526                           ;L210004 HC.c: 1080: mode_state = 1;
  3527  00B5  3001               	movlw	1
  3528  00B6  00E8               	movwf	_mode_state	;volatile
  3529  00B7  01E9               	clrf	_mode_state+1	;volatile
  3530  00B8                     i1l5972:	
  3531                           
  3532                           ;L210004 HC.c: 1081: }
  3533                           ;L210004 HC.c: 1082: }
  3534                           ;L210004 HC.c: 1083: if(heat_timeout){
  3535  00B8  087B               	movf	_heat_timeout+1,w	;volatile
  3536  00B9  047A               	iorwf	_heat_timeout,w	;volatile
  3537  00BA  1903               	skipnz
  3538  00BB  28CA               	goto	i1l5980
  3539                           
  3540                           ;L210004 HC.c: 1084: if(!(--heat_timeout)){
  3541  00BC  30FF               	movlw	-1
  3542  00BD  07FA               	addwf	_heat_timeout,f	;volatile
  3543  00BE  1C03               	skipc
  3544  00BF  03FB               	decf	_heat_timeout+1,f	;volatile
  3545  00C0  087B               	movf	_heat_timeout+1,w	;volatile
  3546  00C1  047A               	iorwf	_heat_timeout,w	;volatile
  3547  00C2  1D03               	skipz
  3548  00C3  28CA               	goto	i1l5980
  3549                           
  3550                           ;L210004 HC.c: 1085: LATA3 = 1;
  3551  00C4  0022               	movlb	2	; select bank2
  3552  00C5  158C               	bsf	12,3
  3553                           
  3554                           ;L210004 HC.c: 1086: heat_on = 1;
  3555  00C6  0020               	movlb	0	; select bank0
  3556  00C7  01EA               	clrf	_heat_on	;volatile
  3557  00C8  0AEA               	incf	_heat_on,f	;volatile
  3558                           
  3559                           ;L210004 HC.c: 1087: heat_off = 0;
  3560  00C9  01CD               	clrf	_heat_off	;volatile
  3561  00CA                     i1l5980:	
  3562                           
  3563                           ;L210004 HC.c: 1088: }
  3564                           ;L210004 HC.c: 1089: }
  3565                           ;L210004 HC.c: 1090: }
  3566                           ;L210004 HC.c: 1091: }
  3567                           ;L210004 HC.c: 1092: TMR0IF = 0;
  3568  00CA  110B               	bcf	11,2
  3569  00CB  0009               	retfie
  3570  00CC                     __end_of_isr:	
  3571                           
  3572                           	psect	text262
  3573  05F7                     __ptext262:	
  3574 ;; =============== function _isr ends ============
  3575                           
  3576                           
  3577 ;; *************** function i1_hc_led_off *****************
  3578 ;; Defined at:
  3579 ;;		line 1111 in file "L210004 HC.c"
  3580 ;; Parameters:    Size  Location     Type
  3581 ;;		None
  3582 ;; Auto vars:     Size  Location     Type
  3583 ;;		None
  3584 ;; Return value:  Size  Location     Type
  3585 ;;		None               void
  3586 ;; Registers used:
  3587 ;;		status,2
  3588 ;; Tracked objects:
  3589 ;;		On entry : 1F/1
  3590 ;;		On exit  : 1F/0
  3591 ;;		Unchanged: FFFE0/0
  3592 ;; Data sizes:     COMMON   BANK0   BANK1   BANK2   BANK3   BANK4   BANK5   BANK6
  3593 ;;      Params:         0       0       0       0       0       0       0       0
  3594 ;;      Locals:         0       0       0       0       0       0       0       0
  3595 ;;      Temps:          0       0       0       0       0       0       0       0
  3596 ;;      Totals:         0       0       0       0       0       0       0       0
  3597 ;;Total ram usage:        0 bytes
  3598 ;; Hardware stack levels used:    1
  3599 ;; This function calls:
  3600 ;;		Nothing
  3601 ;; This function is called by:
  3602 ;;		_isr
  3603 ;; This function uses a non-reentrant model
  3604 ;;
  3605  05F7                     i1_hc_led_off:	
  3606                           
  3607                           ;L210004 HC.c: 1112: LATD0 = 1;
  3608                           
  3609                           ; Regs used in i1_hc_led_off: [status,2]
  3610  05F7  0022               	movlb	2	; select bank2
  3611  05F8  140F               	bsf	15,0
  3612                           
  3613                           ;L210004 HC.c: 1113: LATC2 = 1;
  3614  05F9  150E               	bsf	14,2
  3615                           
  3616                           ;L210004 HC.c: 1114: LATC1 = 1;
  3617  05FA  148E               	bsf	14,1
  3618                           
  3619                           ;L210004 HC.c: 1115: LATC0 = 1;
  3620  05FB  140E               	bsf	14,0
  3621                           
  3622                           ;L210004 HC.c: 1116: LATD4 = 1;
  3623  05FC  160F               	bsf	15,4
  3624                           
  3625                           ;L210004 HC.c: 1117: z0_on = 1;
  3626  05FD  0020               	movlb	0	; select bank0
  3627  05FE  01EC               	clrf	_z0_on	;volatile
  3628  05FF  0AEC               	incf	_z0_on,f	;volatile
  3629                           
  3630                           ;L210004 HC.c: 1118: z0_off = 0;
  3631  0600  01E0               	clrf	_z0_off	;volatile
  3632                           
  3633                           ;L210004 HC.c: 1119: LATD2 = 1;
  3634  0601  0022               	movlb	2	; select bank2
  3635  0602  150F               	bsf	15,2
  3636                           
  3637                           ;L210004 HC.c: 1120: z1_on = 1;
  3638  0603  0020               	movlb	0	; select bank0
  3639  0604  01EE               	clrf	_z1_on	;volatile
  3640  0605  0AEE               	incf	_z1_on,f	;volatile
  3641                           
  3642                           ;L210004 HC.c: 1121: z1_off = 0;
  3643  0606  01ED               	clrf	_z1_off	;volatile
  3644                           
  3645                           ;L210004 HC.c: 1122: LATA7 = 1;
  3646  0607  0022               	movlb	2	; select bank2
  3647  0608  178C               	bsf	12,7
  3648                           
  3649                           ;L210004 HC.c: 1123: z2_on = 1;
  3650  0609  0020               	movlb	0	; select bank0
  3651  060A  01E4               	clrf	_z2_on	;volatile
  3652  060B  0AE4               	incf	_z2_on,f	;volatile
  3653                           
  3654                           ;L210004 HC.c: 1124: z2_off = 0;
  3655  060C  01E3               	clrf	_z2_off	;volatile
  3656                           
  3657                           ;L210004 HC.c: 1125: LATC4 = 1;
  3658  060D  0022               	movlb	2	; select bank2
  3659  060E  160E               	bsf	14,4
  3660                           
  3661                           ;L210004 HC.c: 1126: z3_on = 1;
  3662  060F  0020               	movlb	0	; select bank0
  3663  0610  01EF               	clrf	_z3_on	;volatile
  3664  0611  0AEF               	incf	_z3_on,f	;volatile
  3665                           
  3666                           ;L210004 HC.c: 1127: z3_off = 0;
  3667  0612  01E6               	clrf	_z3_off	;volatile
  3668  0613  0008               	return
  3669  0614                     __end_ofi1_hc_led_off:	
  3670                           
  3671                           	psect	text263
  3672  0000                     __ptext263:	
  3673 ;; =============== function i1_hc_led_off ends ============
  3674                           
  3675  007E                     btemp	set	126	;btemp
  3676  007E                     wtemp0	set	126


HI-TECH Software PICC Macro Assembler V9.83 build 10920 
Symbol Table                                                                                   Thu Mar 18 10:01:18 2021

        connection_est@i 0072                      _GIE 005F                      _RB1 0069  
                    _RB2 006A                      _RA4 0064                      _RB3 006B  
                    _RA5 0065                      _RB4 006C                      _RA6 0066  
                    _RD1 0079                      _RC3 0073                      _RE0 0080  
                    _RD3 007B                      _RC5 0075                      _RD5 007D  
            _pwr_btn_flg 005B                      _isr 0004                      wreg 0009  
            main@heat_de 0028   __end_of_connection_est 011A                     l2111 0552  
                   l2122 0000                     l2210 03C0                     l2115 0000  
                   l2118 0592                     l2150 025E                     l2223 040E  
                   l2333 0000                     l2342 0000                     l2158 0298  
                   l2336 0000                     l2168 02CC                     l2178 0300  
                   l2347 0000                     l2267 04F1                     l2188 0334  
                   l6000 011C                     l6010 012A                     l6002 0000  
                   l6004 0000                     l6100 01B5                     l6030 0000  
                   l6022 00F7                     l6110 0000                     l6102 0000  
                   l6008 0000                     l6024 0000                     l6016 0000  
                   l6200 0259                     l6120 0000                     l6104 0000  
                   l6040 0000                     l6032 0000                     l6026 0000  
                   l6122 0000                     l6106 0000                     l6050 0000  
                   l6042 0000                     l6034 0000                     l6028 0000  
                   l6220 0000                     l6204 0000                     l6132 01E5  
                   l6124 0000                     l6108 0000                     l6060 0000  
                   l6052 0000                     l6044 0000                     l6036 0000  
                   l6230 0000                     l6222 0000                     l6214 0000  
                   l6206 0263                     l6118 01D0                     l6070 0000  
                   l6062 0000                     l6054 0000                     l6046 0000  
                   l6038 0000                     l6304 02C8                     l6240 0000  
                   l6232 0000                     l6224 0000                     l6160 0000  
                   l6152 0209                     l6144 0000                     l6080 0000  
                   l6072 0000                     l6064 0000                     l6056 0000  
                   l6048 0000                     l6410 0000                     l6330 02E9  
                   l6322 0000                     l6306 0000                     l6234 0000  
                   l6226 0281                     l6218 0000                     l6170 0224  
                   l6162 0000                     l6154 0000                     l6146 0207  
                   l6138 0000                     l6090 01AE                     l6082 0000  
                   l6074 0000                     l6066 0000                     l6058 0000  
                   l6340 0000                     l6324 0000                     l6332 02EC  
                   l6236 0000                     l6228 0284                     l6252 0294  
                   l6172 0000                     l6156 0000                     l6092 0000  
                   l6084 0000                     l6076 0000                     l6068 0000  
                   l6510 0000                     l6430 0000                     l6422 0000  
                   l6342 0000                     l6334 0000                     l6326 0000  
                   l6318 0000                     l6270 0000                     l6254 0000  
                   l6238 0000                     l6190 0000                     l6174 0000  
                   l6158 0000                     l6094 0000                     l6078 0000  
                   l6600 0000                     l6520 0000                     l6440 0000  
                   l6432 0000                     l6408 0330                     l6344 0000  
                   l6336 0000                     l6328 0000                     l6272 0000  
                   l6280 02B8                     l6184 0239                     l6176 0000  
                   l6088 01A2                     l6610 042C                     l6602 0420  
                   l6530 0000                     l6450 0000                     l6442 0000  
                   l6434 035B                     l6426 0354                     l6370 0000  
                   l6338 0000                     l6290 0000                     l6282 0000  
                   l6274 0000                     l6266 0000                     l5740 0000  
                   l6700 048E                     l6620 0000                     l6604 0000  
                   l6532 0000                     l6524 0000                     l6508 03BC  
                   l6452 0000                     l6436 035E                     l6428 0000  
                   l6460 0387                     l6380 0000                     l6356 02FC  
                   l6292 0000                     l6284 0000                     l6276 0000  
                   l6196 0000                     l5750 0000                     l6710 0000  
                   l6630 0000                     l6622 0000                     l6614 0000  
                   l6550 0000                     l6542 03EF                     l6534 0000  
                   l6526 0000                     l6454 0000                     l6446 0366  
                   l6438 0000                     l6462 038A                     l6390 0000  
                   l6382 031D                     l6374 0000                     l6358 0000  
                   l6286 0000                     l6278 02B5                     l6198 0000  
                   l5744 056D                     l5736 0000                     l5760 0000  
                   l6800 04FA                     l6720 0000                     l6712 0000  
                   l6704 0000                     l6640 0453                     l6632 0000  
                   l6616 0000                     l6608 042B                     l6624 043C  
                   l6560 0000                     l6552 0000                     l6528 0000  
                   l6480 0000                     l6472 0000                     l6456 0373  
                   l6448 0000                     l6392 0000                     l6376 0000  
                   l6384 0320                     l6288 0000                     l5754 05AD  
                   l5746 0000                     l5770 0000                     l5762 0000  
                   l6802 0000                     l6730 0000                     l6714 0000  
                   l6706 0000                     l6650 0000                     l6642 0454  
                   l6626 0000                     l6618 0000                     l6634 0449  
                   l6570 0000                     l6562 0000                     l6554 0000  
                   l6538 03E5                     l6546 03F9                     l6490 0000  
                   l6482 0000                     l6458 0376                     l6394 0000  
                   l6386 0000                     l6378 0000                     l5772 0000  
                   l5764 0000                     l5780 0000                     l6820 0000  
                   l6804 0000                     l6740 0000                     l6732 0000  
                   l6724 04A7                     l6716 0000                     l6708 0495  
                   l6660 0000                     l6652 0000                     l6636 0000  
                   l6628 0000                     l6564 0000                     l6556 0000  
                   l6548 0000                     l6492 0000                     l6484 0000  
                   l6476 0000                     l6396 0000                     l6388 0000  
                   ?_isr 0070                     l5766 0000                     l5758 0000  
                   l5782 0000                     l5774 0000                     l6830 0529  
                   l6822 0000                     l6806 0000                     l6750 04C1  
                   l6742 0000                     l6726 04A8                     l6734 04AF  
                   l6718 049C                     l6662 0000                     l6654 0000  
                   l6646 0000                     l6590 0000                     l6566 0000  
                   l6558 0000                     l6494 0000                     l6478 0000  
                   l6486 03AC                     l5768 0000                     l5784 0000  
                   l5776 0000                     l6840 0000                     l6816 0514  
                   l6808 0000                     l6752 04C2                     l6760 04C9  
                   l6736 0000                     l6744 04B6                     l6680 0000  
                   l6672 0473                     l6664 0000                     l6648 0000  
                   l6656 0462                     l6592 0000                     l6568 040A  
                   l6496 0000                     l6488 0000                     l5786 0000  
                   l5778 0000                     l6842 0547                     l6834 0000  
                   l6818 0000                     l6762 0000                     l6770 04D0  
                   l6746 0000                     l6738 0000                     l6690 0000  
                   l6674 0474                     l6682 047B                     l6658 0000  
                   l6666 0469                     l6594 0000                     l6498 0000  
                   l5788 0000                     l6764 0000                     l6756 0000  
                   l6684 0000                     l6692 0482                     l6668 0000  
                   l6596 0000                     l6588 0000                     l6790 0000  
                   l6774 04E1                     l6766 0000                     l6758 0000  
                   l6694 0000                     l6686 0000                     l6678 0000  
                   l6598 0000                     l6792 0000                     l6776 0000  
                   l6768 0000                     l6688 0000                     l6794 04F6  
                   l6698 048D                     l6882 037C                     l5998 0000  
                   _CREN 0CEC                     _FERR 0CEA                     _LATA 010C  
                   _LATB 010D                     _LATC 010E                     _LATD 010F  
                   _LATE 0110                     u3215 034D                     u1903 056B  
                   _PIE1 0091                     u1923 05AB                     u2805 0117  
                   u3655 04DA                     u3807 0198                     u3817 00FD  
                   u3827 0107                     _RCIF 008D                     u3797 0139  
                   _OERR 0CE9                     _SPEN 0CEF                     _TXIF 008C  
                   _WPUB 020D    __size_ofi1_hc_led_off 001D              main@mode_de 002A  
                   _main 012E                     fsr0h 0005                     fsr1h 0007  
                   fsr0l 0004                     indf0 0000                     indf1 0001  
                   fsr1l 0006                     btemp 007E                     start 00CC  
                  ??_isr 0070                    ?_main 0070                    _LATA3 0863  
                  _LATC0 0870                    _LATC1 0871                    _LATD0 0878  
                  _LATC2 0872                    _LATA7 0867                    _LATD2 087A  
                  _LATC4 0874                    _LATD4 087C                    _RCREG 0199  
                  _RCSTA 019D                    _SPBRG 019B                    _TRISA 008C  
                  _TRISB 008D                    _TRISC 008E                    _TRISD 008F  
                  _TRISE 0090                    _TXREG 019A                    _TXSTA 019E  
           i1_hc_led_off 05F7          syn_synack_ack@c 0075                    _z0_on 006C  
                  _z1_on 006E                    _z2_on 0064                    _z3_on 006F  
                  _getch 058E          ?_connection_est 0070                    _putch 054D  
                  main@c 002E                    main@i 0036                    main@x 0034  
           main@power_de 002C                    wtemp0 007E         ??_syn_synack_ack 0075  
           __end_of_main 054D                   ??_main 0077                   ?_getch 0070  
        _massage_timeout 007C                   _ANSELA 018C                   ?_putch 0070  
                 _ANSELB 018D                   _ANSELD 018F                   _ANSELE 0190  
                 i1l2330 0000                   i1l2336 0000                   i1l5820 0020  
                 i1l5902 0067                   i1l5904 0068                   i1l5930 007F  
                 i1l5818 001F                   i1l5932 0080                   i1l5846 0037  
                 i1l5790 0000                   i1l5960 0098                   i1l5848 0038  
                 i1l5970 0000                   i1l5874 004F                   i1l5972 00B8  
                 i1l5876 0050                   i1l5980 00CA                   i1l5990 0000  
                 i1l5982 0000                   i1l5958 0097                   i1l5992 0000  
                 i1l5984 0000                   i1l5968 0000                   i1l5994 0000  
                 i1l5986 0000                   i1l5978 0000                   i1l5996 0000  
                 i1l5988 0000                   _OSCCON 0099                   _TMR0IE 005D  
                 _TMR0IF 005A                   _SPBRGH 019C                   _SPBRGL 019B  
                 _WDTCON 0097                   _TRISC6 0476                   _TRISC7 0477  
                 _SWDTEN 04B8                   _z0_off 0060                   _z1_off 006D  
                 _z2_off 0063                   _z3_off 0066                   _pwr_on 006B  
                 clrloop 0615           __pcstackCOMMON 0070             __pidataBANK0 0000  
           __pidataBANK1 0000            __end_of_getch 05B0            __end_of_putch 0571  
     __size_of_hc_led_on 001A                  ??_getch 0070                  ??_putch 0070  
             __pbssBANK0 0048               __pbssBANK1 00A0               _hc_led_off 0571  
             __pmaintext 012E               __pintentry 0004                  _BAUDCON 019F  
       ??_connection_est 0070        __end_of_hc_led_on 05CA               _hr_cl_sent 0051  
             _hr_op_sent 0052                  _z0_sent 0061                  _z1_sent 0062  
                _z2_sent 0065             _heat_timeout 007A                  _z3_sent 0067  
                _heat_on 006A                  _last_tx 0048             __size_of_isr 00C8  
             _mode_state 0068                  _rx_char 00A0                  _pwr_flg 00A5  
                _pwr_off 005C                  _tx_flag 005F     end_of_initialization 00F3  
             _pr_cl_sent 0059               _lum_btn_cl 0053               _lum_btn_op 0054  
            ?_hc_led_off 0070               _pr_op_sent 005A               getch@count 0070  
             main@i_3350 0042               main@i_3351 003A               main@i_3352 003C  
             main@i_3353 0044               main@i_3356 003E               main@i_3357 0040  
             main@i_3349 0038               main@i_3358 0046               main@safety 0030  
__size_of_syn_synack_ack 0014      start_initialization 00CF      __size_of_hc_led_off 001D  
            __end_of_isr 00CC              __pdataBANK0 0068              __pdataBANK1 00A6  
          ?i1_hc_led_off 0070              __pbssCOMMON 007A            __pcstackBANK0 0020  
              _hc_led_on 05B0                __ptext260 054D                __ptext262 05F7  
              __ptext263 0000                __ptext255 00F5                __ptext256 011A  
              __ptext257 0571                __ptext258 05B0                __ptext259 058E  
              _heat_sent 004E          main@connect_ack 0032           ??i1_hc_led_off 0070  
              _hr_btn_cl 004F                _hr_btn_op 0050           __size_of_getch 0022  
         __size_of_putch 0024             ??_hc_led_off 0070                _pr_btn_cl 0057  
              _pr_btn_op 0058               ?_hc_led_on 0070           _syn_synack_ack 011A  
              main@z0_de 0020                main@z1_de 0022                main@z2_de 0024  
              main@z3_de 0026                _tx_buffer 005E       __end_of_hc_led_off 058E  
__size_of_connection_est 0025               putch@count 0071       syn_synack_ack@echo 0076  
 __end_of_syn_synack_ack 012E                 _heat_off 004D            __size_of_main 041F  
   __end_ofi1_hc_led_off 0614                 clear_ram 0614              ??_hc_led_on 0070  
               _time_out 00A6                 _pwr_sent 005D                 main@echo 0033  
        ?_syn_synack_ack 0070                putch@byte 0070                 intlevel1 0000  
            _lum_cl_sent 0055              _lum_op_sent 0056               _OPTION_REG 0095  
         _connection_est 00F5  
